(i__main__
Game_Data
p0
(dp1
S'level_map'
p2
(lp3
(lp4
(lp5
(lp6
I3
aI0
aa(lp7
I0
aI0
aa(lp8
I13
aI0
aa(lp9
I25
aI0
aa(lp10
I25
aI0
aa(lp11
I23
aI0
aa(lp12
I6
aI0
aa(lp13
I9
aI0
aa(lp14
I17
aI0
aa(lp15
I13
aI0
aa(lp16
I8
aI0
aa(lp17
I0
aI0
aaa(lp18
(lp19
I14
aI0
aa(lp20
I8
aI0
aa(lp21
I13
aI0
aa(lp22
I0
aI0
aa(lp23
I0
aI0
aa(lp24
I23
aI0
aa(lp25
I14
aI0
aa(lp26
I14
aI0
aa(lp27
I14
aI0
aa(lp28
I14
aI0
aa(lp29
I12
a(I0
I9
tp30
aa(lp31
I14
aI0
aaa(lp32
(lp33
I13
aI0
aa(lp34
I0
aI0
aa(lp35
I0
aI0
aa(lp36
I0
aI0
aa(lp37
I14
aI0
aa(lp38
I23
aI0
aa(lp39
I25
aI0
aa(lp40
I25
aI0
aa(lp41
I23
aI0
aa(lp42
I0
aI0
aa(lp43
I13
aI0
aa(lp44
I10
aI0
aaa(lp45
(lp46
I0
aI0
aa(lp47
I0
aI0
aa(lp48
I23
aI0
aa(lp49
I0
aI0
aa(lp50
I0
aI0
aa(lp51
I22
aI0
aa(lp52
I0
aI0
aa(lp53
I0
aI0
aa(lp54
I23
aI0
aa(lp55
I0
aI0
aa(lp56
I13
aI0
aa(lp57
I4
aI0
aaa(lp58
(lp59
I0
aI0
aa(lp60
I0
aI0
aa(lp61
I23
aI0
aa(lp62
I0
aI0
aa(lp63
I0
aI0
aa(lp64
I8
aI0
aa(lp65
I22
aI0
aa(lp66
I0
aI0
aa(lp67
I23
aI0
aa(lp68
I8
aI0
aa(lp69
I13
aI0
aa(lp70
I0
aI0
aaa(lp71
(lp72
I8
aI0
aa(lp73
I0
aI0
aa(lp74
I4
aI0
aa(lp75
I0
aI0
aa(lp76
I14
aI0
aa(lp77
I23
aI0
aa(lp78
I0
aI0
aa(lp79
I0
aI0
aa(lp80
I8
aI0
aa(lp81
I0
aI0
aa(lp82
I0
aI0
aa(lp83
I0
aI0
aaa(lp84
(lp85
I5
aI0
aa(lp86
I8
aI0
aa(lp87
I0
aI0
aa(lp88
I8
aI0
aa(lp89
I14
aI0
aa(lp90
I23
aI0
aa(lp91
I0
aI0
aa(lp92
I0
aI0
aa(lp93
I0
aI0
aa(lp94
I8
aI0
aa(lp95
I8
aI0
aa(lp96
I0
aI0
aaa(lp97
(lp98
I16
aI0
aa(lp99
I25
aI0
aa(lp100
I8
aI0
aa(lp101
I8
aI0
aa(lp102
I25
aI0
aa(lp103
I23
aI0
aa(lp104
I25
aI0
aa(lp105
I23
aI0
aa(lp106
I25
aI0
aa(lp107
I25
aI0
aa(lp108
I25
aI0
aa(lp109
I8
aI0
aaa(lp110
(lp111
I0
aI0
aa(lp112
I0
aI0
aa(lp113
I22
aI0
aa(lp114
I22
aI0
aa(lp115
I10
aI0
aa(lp116
I8
aI0
aa(lp117
I0
aI0
aa(lp118
I23
aI0
aa(lp119
I0
aI0
aa(lp120
I0
aI0
aa(lp121
I0
aI0
aa(lp122
I0
aI0
aaa(lp123
(lp124
I0
aI0
aa(lp125
I22
aI0
aa(lp126
I10
aI0
aa(lp127
I22
aI0
aa(lp128
I22
aI0
aa(lp129
I22
aI0
aa(lp130
I22
aI0
aa(lp131
I23
aI0
aa(lp132
I4
aI0
aa(lp133
I25
aI0
aa(lp134
I0
aI0
aa(lp135
I0
aI0
aaa(lp136
(lp137
I0
aI0
aa(lp138
I25
aI0
aa(lp139
I25
aI0
aa(lp140
I25
aI0
aa(lp141
I25
aI0
aa(lp142
I22
aI0
aa(lp143
I0
aI0
aa(lp144
I23
aI0
aa(lp145
I0
aI0
aa(lp146
I25
aI0
aa(lp147
I0
aI0
aa(lp148
I2
aI0
aaa(lp149
(lp150
I0
aI0
aa(lp151
I0
aI0
aa(lp152
I10
aI0
aa(lp153
I22
aI0
aa(lp154
I20
aI0
aa(lp155
I0
aI0
aa(lp156
I0
aI0
aa(lp157
I0
aI0
aa(lp158
I0
aI0
aa(lp159
I0
aI0
aa(lp160
I0
aI0
aa(lp161
I21
aI0
aaa(lp162
(lp163
I0
aI0
aa(lp164
I0
aI0
aa(lp165
I8
aI0
aa(lp166
I14
aI0
aa(lp167
I23
aI0
aa(lp168
I2
aI0
aa(lp169
I0
aI0
aa(lp170
I23
aI0
aa(lp171
I0
aI0
aa(lp172
I23
aI0
aa(lp173
I25
aI0
aa(lp174
I2
aI0
aaa(lp175
(lp176
I0
aI0
aa(lp177
I8
aI0
aa(lp178
I14
aI0
aa(lp179
I8
aI0
aa(lp180
I23
aI0
aa(lp181
I22
aI0
aa(lp182
I8
aI0
aa(lp183
I23
aI0
aa(lp184
I0
aI0
aa(lp185
I23
aI0
aa(lp186
I3
aI0
aa(lp187
I0
aI0
aaa(lp188
(lp189
I0
aI0
aa(lp190
I14
aI0
aa(lp191
I8
aI0
aa(lp192
I3
aI0
aa(lp193
I23
aI0
aa(lp194
I25
aI0
aa(lp195
I25
aI0
aa(lp196
I0
aI0
aa(lp197
I14
aI0
aa(lp198
I23
aI0
aa(lp199
I0
aI0
aa(lp200
I0
aI0
aaa(lp201
(lp202
I17
aI0
aa(lp203
I21
aI0
aa(lp204
I0
aI0
aa(lp205
I0
aI0
aa(lp206
I20
aI0
aa(lp207
I0
aI0
aa(lp208
I0
aI0
aa(lp209
I0
aI0
aa(lp210
I0
aI0
aa(lp211
I22
aI0
aa(lp212
I0
aI0
aa(lp213
I22
aI0
aaaa(lp214
(lp215
(lp216
I0
aI0
aa(lp217
I0
aI0
aa(lp218
I16
aI0
aa(lp219
I0
aI0
aa(lp220
I16
aI0
aa(lp221
I3
aI0
aa(lp222
I0
aI0
aa(lp223
I0
aI0
aa(lp224
I11
a(I10
I9
tp225
aa(lp226
I0
aI0
aa(lp227
I16
aI0
aa(lp228
I3
aI0
aaa(lp229
(lp230
I12
a(I1
I2
tp231
aa(lp232
I0
aI0
aa(lp233
I13
aI0
aa(lp234
I11
a(I1
I4
tp235
aa(lp236
I0
aI0
aa(lp237
I17
aI0
aa(lp238
I0
aI0
aa(lp239
I0
aI0
aa(lp240
I0
aI0
aa(lp241
I0
aI0
aa(lp242
I0
aI0
aa(lp243
I8
aI0
aaa(lp244
(lp245
I12
a(I7
I0
tp246
aa(lp247
I0
aI0
aa(lp248
I0
aI0
aa(lp249
I0
aI0
aa(lp250
I0
aI0
aa(lp251
I0
aI0
aa(lp252
I0
aI0
aa(lp253
I0
aI0
aa(lp254
I0
aI0
aa(lp255
I0
aI0
aa(lp256
I0
aI0
aa(lp257
I0
aI0
aaa(lp258
(lp259
I0
aI0
aa(lp260
I13
aI0
aa(lp261
I15
aI0
aa(lp262
I0
aI0
aa(lp263
I0
aI0
aa(lp264
I0
aI0
aa(lp265
I8
aI0
aa(lp266
I0
aI0
aa(lp267
I0
aI0
aa(lp268
I0
aI0
aa(lp269
I0
aI0
aa(lp270
I0
aI0
aaa(lp271
(lp272
I0
aI0
aa(lp273
I0
aI0
aa(lp274
I0
aI0
aa(lp275
I0
aI0
aa(lp276
I0
aI0
aa(lp277
I0
aI0
aa(lp278
I2
aI0
aa(lp279
I0
aI0
aa(lp280
I0
aI0
aa(lp281
I0
aI0
aa(lp282
I0
aI0
aa(lp283
I0
aI0
aaa(lp284
(lp285
I0
aI0
aa(lp286
I12
a(I6
I2
tp287
aa(lp288
I0
aI0
aa(lp289
I0
aI0
aa(lp290
I0
aI0
aa(lp291
I0
aI0
aa(lp292
I0
aI0
aa(lp293
I8
aI0
aa(lp294
I0
aI0
aa(lp295
I0
aI0
aa(lp296
I0
aI0
aa(lp297
I0
aI0
aaa(lp298
(lp299
I0
aI0
aa(lp300
I0
aI0
aa(lp301
I13
aI0
aa(lp302
I0
aI0
aa(lp303
I0
aI0
aa(lp304
I0
aI0
aa(lp305
I0
aI0
aa(lp306
I0
aI0
aa(lp307
I0
aI0
aa(lp308
I0
aI0
aa(lp309
I0
aI0
aa(lp310
I0
aI0
aaa(lp311
(lp312
I13
aI0
aa(lp313
I0
aI0
aa(lp314
I18
aI0
aa(lp315
I0
aI0
aa(lp316
I0
aI0
aa(lp317
I0
aI0
aa(lp318
I2
aI0
aa(lp319
I0
aI0
aa(lp320
I8
aI0
aa(lp321
I0
aI0
aa(lp322
I0
aI0
aa(lp323
I0
aI0
aaa(lp324
(lp325
I18
aI0
aa(lp326
I0
aI0
aa(lp327
I13
aI0
aa(lp328
I0
aI0
aa(lp329
I0
aI0
aa(lp330
I0
aI0
aa(lp331
I0
aI0
aa(lp332
I0
aI0
aa(lp333
I0
aI0
aa(lp334
I0
aI0
aa(lp335
I0
aI0
aa(lp336
I4
aI0
aaa(lp337
(lp338
I0
aI0
aa(lp339
I0
aI0
aa(lp340
I13
aI0
aa(lp341
I0
aI0
aa(lp342
I0
aI0
aa(lp343
I0
aI0
aa(lp344
I0
aI0
aa(lp345
I0
aI0
aa(lp346
I0
aI0
aa(lp347
I0
aI0
aa(lp348
I0
aI0
aa(lp349
I0
aI0
aaa(lp350
(lp351
I0
aI0
aa(lp352
I13
aI0
aa(lp353
I13
aI0
aa(lp354
I0
aI0
aa(lp355
I0
aI0
aa(lp356
I0
aI0
aa(lp357
I0
aI0
aa(lp358
I0
aI0
aa(lp359
I0
aI0
aa(lp360
I13
aI0
aa(lp361
I0
aI0
aa(lp362
I4
aI0
aaa(lp363
(lp364
I0
aI0
aa(lp365
I18
aI0
aa(lp366
I12
a(I10
I1
tp367
aa(lp368
I0
aI0
aa(lp369
I0
aI0
aa(lp370
I25
aI0
aa(lp371
I0
aI0
aa(lp372
I2
aI0
aa(lp373
I0
aI0
aa(lp374
I18
aI0
aa(lp375
I0
aI0
aa(lp376
I0
aI0
aaa(lp377
(lp378
I0
aI0
aa(lp379
I13
aI0
aa(lp380
I0
aI0
aa(lp381
I0
aI0
aa(lp382
I0
aI0
aa(lp383
I25
aI0
aa(lp384
I0
aI0
aa(lp385
I0
aI0
aa(lp386
I0
aI0
aa(lp387
I12
a(I13
I10
tp388
aa(lp389
I0
aI0
aa(lp390
I16
aI0
aaa(lp391
(lp392
I0
aI0
aa(lp393
I13
aI0
aa(lp394
I11
a(I2
I4
tp395
aa(lp396
I0
aI0
aa(lp397
I0
aI0
aa(lp398
I13
aI0
aa(lp399
I15
aI0
aa(lp400
I0
aI0
aa(lp401
I13
aI0
aa(lp402
I13
aI0
aa(lp403
I13
aI0
aa(lp404
I13
aI0
aaa(lp405
(lp406
I0
aI0
aa(lp407
I13
aI0
aa(lp408
I11
a(I3
I4
tp409
aa(lp410
I12
a(I13
I5
tp411
aa(lp412
I0
aI0
aa(lp413
I0
aI0
aa(lp414
I0
aI0
aa(lp415
I0
aI0
aa(lp416
I0
aI0
aa(lp417
I0
aI0
aa(lp418
I0
aI0
aa(lp419
I3
aI0
aaa(lp420
(lp421
I0
aI0
aa(lp422
I0
aI0
aa(lp423
I0
aI0
aa(lp424
I0
aI0
aa(lp425
I0
aI0
aa(lp426
I0
aI0
aa(lp427
I12
a(I15
I7
tp428
aa(lp429
I0
aI0
aa(lp430
I15
aI0
aa(lp431
I12
a(I13
I11
tp432
aa(lp433
I0
aI0
aa(lp434
I6
aI0
aaaa(lp435
(lp436
(lp437
I0
aI0
aa(lp438
I23
aI0
aa(lp439
I6
aI0
aa(lp440
I13
aI0
aa(lp441
I15
aI0
aa(lp442
I7
a(I0
I0
tp443
aa(lp444
I16
aI0
aa(lp445
I8
aI0
aa(lp446
I0
aI0
aa(lp447
I0
aI0
aa(lp448
I0
aI0
aa(lp449
I12
a(I1
I6
tp450
aaa(lp451
(lp452
I8
aI0
aa(lp453
I23
aI0
aa(lp454
I10
aI0
aa(lp455
I22
aI0
aa(lp456
I0
aI0
aa(lp457
I0
aI0
aa(lp458
I13
aI0
aa(lp459
I8
aI0
aa(lp460
I13
aI0
aa(lp461
I13
aI0
aa(lp462
I13
aI0
aa(lp463
I13
aI0
aaa(lp464
(lp465
I4
aI0
aa(lp466
I23
aI0
aa(lp467
I14
aI0
aa(lp468
I13
aI0
aa(lp469
I2
aI0
aa(lp470
I0
aI0
aa(lp471
I0
aI0
aa(lp472
I8
aI0
aa(lp473
I13
aI0
aa(lp474
I4
aI0
aa(lp475
I0
aI0
aa(lp476
I4
aI0
aaa(lp477
(lp478
I0
aI0
aa(lp479
I23
aI0
aa(lp480
I14
aI0
aa(lp481
I13
aI0
aa(lp482
I0
aI0
aa(lp483
I0
aI0
aa(lp484
I20
aI0
aa(lp485
I13
aI0
aa(lp486
I13
aI0
aa(lp487
I0
aI0
aa(lp488
I2
aI0
aa(lp489
I0
aI0
aaa(lp490
(lp491
I0
aI0
aa(lp492
I23
aI0
aa(lp493
I14
aI0
aa(lp494
I13
aI0
aa(lp495
I0
aI0
aa(lp496
I0
aI0
aa(lp497
I20
aI0
aa(lp498
I8
aI0
aa(lp499
I13
aI0
aa(lp500
I0
aI0
aa(lp501
I2
aI0
aa(lp502
I0
aI0
aaa(lp503
(lp504
I0
aI0
aa(lp505
I23
aI0
aa(lp506
I14
aI0
aa(lp507
I13
aI0
aa(lp508
I4
aI0
aa(lp509
I0
aI0
aa(lp510
I20
aI0
aa(lp511
I8
aI0
aa(lp512
I13
aI0
aa(lp513
I4
aI0
aa(lp514
I0
aI0
aa(lp515
I4
aI0
aaa(lp516
(lp517
I0
aI0
aa(lp518
I23
aI0
aa(lp519
I14
aI0
aa(lp520
I13
aI0
aa(lp521
I0
aI0
aa(lp522
I0
aI0
aa(lp523
I20
aI0
aa(lp524
I8
aI0
aa(lp525
I13
aI0
aa(lp526
I0
aI0
aa(lp527
I13
aI0
aa(lp528
I13
aI0
aaa(lp529
(lp530
I0
aI0
aa(lp531
I23
aI0
aa(lp532
I14
aI0
aa(lp533
I13
aI0
aa(lp534
I0
aI0
aa(lp535
I0
aI0
aa(lp536
I20
aI0
aa(lp537
I8
aI0
aa(lp538
I13
aI0
aa(lp539
I8
aI0
aa(lp540
I8
aI0
aa(lp541
I9
aI0
aaa(lp542
(lp543
I0
aI0
aa(lp544
I23
aI0
aa(lp545
I14
aI0
aa(lp546
I13
aI0
aa(lp547
I0
aI0
aa(lp548
I0
aI0
aa(lp549
I20
aI0
aa(lp550
I8
aI0
aa(lp551
I13
aI0
aa(lp552
I14
aI0
aa(lp553
I8
aI0
aa(lp554
I0
aI0
aaa(lp555
(lp556
I0
aI0
aa(lp557
I23
aI0
aa(lp558
I14
aI0
aa(lp559
I13
aI0
aa(lp560
I0
aI0
aa(lp561
I0
aI0
aa(lp562
I20
aI0
aa(lp563
I8
aI0
aa(lp564
I13
aI0
aa(lp565
I14
aI0
aa(lp566
I14
aI0
aa(lp567
I8
aI0
aaa(lp568
(lp569
I0
aI0
aa(lp570
I23
aI0
aa(lp571
I14
aI0
aa(lp572
I13
aI0
aa(lp573
I0
aI0
aa(lp574
I0
aI0
aa(lp575
I20
aI0
aa(lp576
I8
aI0
aa(lp577
I13
aI0
aa(lp578
I0
aI0
aa(lp579
I8
aI0
aa(lp580
I8
aI0
aaa(lp581
(lp582
I0
aI0
aa(lp583
I23
aI0
aa(lp584
I14
aI0
aa(lp585
I13
aI0
aa(lp586
I4
aI0
aa(lp587
I0
aI0
aa(lp588
I20
aI0
aa(lp589
I8
aI0
aa(lp590
I13
aI0
aa(lp591
I14
aI0
aa(lp592
I14
aI0
aa(lp593
I8
aI0
aaa(lp594
(lp595
I0
aI0
aa(lp596
I23
aI0
aa(lp597
I14
aI0
aa(lp598
I13
aI0
aa(lp599
I0
aI0
aa(lp600
I0
aI0
aa(lp601
I20
aI0
aa(lp602
I8
aI0
aa(lp603
I13
aI0
aa(lp604
I0
aI0
aa(lp605
I8
aI0
aa(lp606
I8
aI0
aaa(lp607
(lp608
I0
aI0
aa(lp609
I23
aI0
aa(lp610
I14
aI0
aa(lp611
I13
aI0
aa(lp612
I2
aI0
aa(lp613
I0
aI0
aa(lp614
I20
aI0
aa(lp615
I8
aI0
aa(lp616
I13
aI0
aa(lp617
I14
aI0
aa(lp618
I14
aI0
aa(lp619
I14
aI0
aaa(lp620
(lp621
I0
aI0
aa(lp622
I23
aI0
aa(lp623
I12
a(I0
I3
tp624
aa(lp625
I13
aI0
aa(lp626
I0
aI0
aa(lp627
I0
aI0
aa(lp628
I1
aI0
aa(lp629
I0
aI0
aa(lp630
I0
aI0
aa(lp631
I0
aI0
aa(lp632
I8
aI0
aa(lp633
I8
aI0
aaa(lp634
(lp635
I0
aI0
aa(lp636
I23
aI0
aa(lp637
I1
aI0
aa(lp638
I1
aI0
aa(lp639
I1
aI0
aa(lp640
I1
aI0
aa(lp641
I1
aI0
aa(lp642
I1
aI0
aa(lp643
I1
aI0
aa(lp644
I1
aI0
aa(lp645
I1
aI0
aa(lp646
I1
aI0
aaa(lp647
(lp648
I0
aI0
aa(lp649
I0
aI0
aa(lp650
I0
aI0
aa(lp651
I0
aI0
aa(lp652
I0
aI0
aa(lp653
I0
aI0
aa(lp654
I0
aI0
aa(lp655
I0
aI0
aa(lp656
I0
aI0
aa(lp657
I0
aI0
aa(lp658
I0
aI0
aa(lp659
I0
aI0
aaa(lp660
(lp661
I23
aI0
aa(lp662
I1
aI0
aa(lp663
I1
aI0
aa(lp664
I1
aI0
aa(lp665
I1
aI0
aa(lp666
I1
aI0
aa(lp667
I1
aI0
aa(lp668
I1
aI0
aa(lp669
I1
aI0
aa(lp670
I1
aI0
aa(lp671
I1
aI0
aa(lp672
I0
aI0
aaa(lp673
(lp674
I0
aI0
aa(lp675
I0
aI0
aa(lp676
I0
aI0
aa(lp677
I14
aI0
aa(lp678
I1
aI0
aa(lp679
I0
aI0
aa(lp680
I0
aI0
aa(lp681
I0
aI0
aa(lp682
I0
aI0
aa(lp683
I7
a(I14
I4
tp684
aa(lp685
I23
aI0
aa(lp686
I0
aI0
aaa(lp687
(lp688
I0
aI0
aa(lp689
I5
aI0
aa(lp690
I20
aI0
aa(lp691
I14
aI0
aa(lp692
I1
aI0
aa(lp693
I0
aI0
aa(lp694
I0
aI0
aa(lp695
I0
aI0
aa(lp696
I1
aI0
aa(lp697
I3
aI0
aa(lp698
I23
aI0
aa(lp699
I0
aI0
aaa(lp700
(lp701
I0
aI0
aa(lp702
I14
aI0
aa(lp703
I21
aI0
aa(lp704
I0
aI0
aa(lp705
I0
aI0
aa(lp706
I0
aI0
aa(lp707
I0
aI0
aa(lp708
I14
aI0
aa(lp709
I1
aI0
aa(lp710
I0
aI0
aa(lp711
I23
aI0
aa(lp712
I0
aI0
aaa(lp713
(lp714
I0
aI0
aa(lp715
I1
aI0
aa(lp716
I1
aI0
aa(lp717
I0
aI0
aa(lp718
I1
aI0
aa(lp719
I0
aI0
aa(lp720
I0
aI0
aa(lp721
I1
aI0
aa(lp722
I14
aI0
aa(lp723
I8
aI0
aa(lp724
I23
aI0
aa(lp725
I0
aI0
aaa(lp726
(lp727
I14
aI0
aa(lp728
I14
aI0
aa(lp729
I8
aI0
aa(lp730
I0
aI0
aa(lp731
I1
aI0
aa(lp732
I0
aI0
aa(lp733
I14
aI0
aa(lp734
I1
aI0
aa(lp735
I0
aI0
aa(lp736
I8
aI0
aa(lp737
I23
aI0
aa(lp738
I0
aI0
aaa(lp739
(lp740
I0
aI0
aa(lp741
I1
aI0
aa(lp742
I3
aI0
aa(lp743
I1
aI0
aa(lp744
I0
aI0
aa(lp745
I14
aI0
aa(lp746
I1
aI0
aa(lp747
I3
aI0
aa(lp748
I0
aI0
aa(lp749
I14
aI0
aa(lp750
I23
aI0
aa(lp751
I0
aI0
aaa(lp752
(lp753
I0
aI0
aa(lp754
I0
aI0
aa(lp755
I0
aI0
aa(lp756
I1
aI0
aa(lp757
I14
aI0
aa(lp758
I8
aI0
aa(lp759
I1
aI0
aa(lp760
I0
aI0
aa(lp761
I14
aI0
aa(lp762
I14
aI0
aa(lp763
I23
aI0
aa(lp764
I0
aI0
aaa(lp765
(lp766
I14
aI0
aa(lp767
I1
aI0
aa(lp768
I1
aI0
aa(lp769
I14
aI0
aa(lp770
I1
aI0
aa(lp771
I0
aI0
aa(lp772
I0
aI0
aa(lp773
I1
aI0
aa(lp774
I0
aI0
aa(lp775
I8
aI0
aa(lp776
I23
aI0
aa(lp777
I0
aI0
aaa(lp778
(lp779
I0
aI0
aa(lp780
I0
aI0
aa(lp781
I0
aI0
aa(lp782
I0
aI0
aa(lp783
I14
aI0
aa(lp784
I1
aI0
aa(lp785
I0
aI0
aa(lp786
I1
aI0
aa(lp787
I14
aI0
aa(lp788
I8
aI0
aa(lp789
I23
aI0
aa(lp790
I0
aI0
aaa(lp791
(lp792
I0
aI0
aa(lp793
I1
aI0
aa(lp794
I1
aI0
aa(lp795
I0
aI0
aa(lp796
I1
aI0
aa(lp797
I0
aI0
aa(lp798
I0
aI0
aa(lp799
I0
aI0
aa(lp800
I1
aI0
aa(lp801
I0
aI0
aa(lp802
I23
aI0
aa(lp803
I0
aI0
aaa(lp804
(lp805
I0
aI0
aa(lp806
I14
aI0
aa(lp807
I22
aI0
aa(lp808
I0
aI0
aa(lp809
I0
aI0
aa(lp810
I0
aI0
aa(lp811
I1
aI0
aa(lp812
I0
aI0
aa(lp813
I1
aI0
aa(lp814
I0
aI0
aa(lp815
I23
aI0
aa(lp816
I0
aI0
aaa(lp817
(lp818
I14
aI0
aa(lp819
I22
aI0
aa(lp820
I0
aI0
aa(lp821
I14
aI0
aa(lp822
I1
aI0
aa(lp823
I0
aI0
aa(lp824
I4
aI0
aa(lp825
I0
aI0
aa(lp826
I1
aI0
aa(lp827
I0
aI0
aa(lp828
I23
aI0
aa(lp829
I0
aI0
aaa(lp830
(lp831
I22
aI0
aa(lp832
I14
aI0
aa(lp833
I22
aI0
aa(lp834
I0
aI0
aa(lp835
I0
aI0
aa(lp836
I1
aI0
aa(lp837
I1
aI0
aa(lp838
I1
aI0
aa(lp839
I14
aI0
aa(lp840
I8
aI0
aa(lp841
I23
aI0
aa(lp842
I0
aI0
aaa(lp843
(lp844
I0
aI0
aa(lp845
I22
aI0
aa(lp846
I0
aI0
aa(lp847
I1
aI0
aa(lp848
I3
aI0
aa(lp849
I0
aI0
aa(lp850
I0
aI0
aa(lp851
I0
aI0
aa(lp852
I8
aI0
aa(lp853
I0
aI0
aa(lp854
I23
aI0
aa(lp855
I0
aI0
aaa(lp856
(lp857
I23
aI0
aa(lp858
I1
aI0
aa(lp859
I1
aI0
aa(lp860
I1
aI0
aa(lp861
I1
aI0
aa(lp862
I1
aI0
aa(lp863
I1
aI0
aa(lp864
I1
aI0
aa(lp865
I1
aI0
aa(lp866
I1
aI0
aa(lp867
I1
aI0
aa(lp868
I0
aI0
aaa(lp869
(lp870
I0
aI0
aa(lp871
I0
aI0
aa(lp872
I0
aI0
aa(lp873
I0
aI0
aa(lp874
I0
aI0
aa(lp875
I0
aI0
aa(lp876
I0
aI0
aa(lp877
I0
aI0
aa(lp878
I0
aI0
aa(lp879
I0
aI0
aa(lp880
I0
aI0
aa(lp881
I0
aI0
aaa(lp882
(lp883
I0
aI0
aa(lp884
I23
aI0
aa(lp885
I1
aI0
aa(lp886
I1
aI0
aa(lp887
I1
aI0
aa(lp888
I1
aI0
aa(lp889
I1
aI0
aa(lp890
I1
aI0
aa(lp891
I1
aI0
aa(lp892
I1
aI0
aa(lp893
I1
aI0
aa(lp894
I1
aI0
aaa(lp895
(lp896
I0
aI0
aa(lp897
I23
aI0
aa(lp898
I7
a(I31
I0
tp899
aa(lp900
I0
aI0
aa(lp901
I22
aI0
aa(lp902
I0
aI0
aa(lp903
I0
aI0
aa(lp904
I0
aI0
aa(lp905
I0
aI0
aa(lp906
I0
aI0
aa(lp907
I0
aI0
aa(lp908
I0
aI0
aaa(lp909
(lp910
I0
aI0
aa(lp911
I23
aI0
aa(lp912
I0
aI0
aa(lp913
I22
aI0
aa(lp914
I1
aI0
aa(lp915
I0
aI0
aa(lp916
I16
aI0
aa(lp917
I0
aI0
aa(lp918
I0
aI0
aa(lp919
I0
aI0
aa(lp920
I2
aI0
aa(lp921
I0
aI0
aaa(lp922
(lp923
I0
aI0
aa(lp924
I23
aI0
aa(lp925
I0
aI0
aa(lp926
I1
aI0
aa(lp927
I0
aI0
aa(lp928
I0
aI0
aa(lp929
I0
aI0
aa(lp930
I0
aI0
aa(lp931
I0
aI0
aa(lp932
I2
aI0
aa(lp933
I0
aI0
aa(lp934
I0
aI0
aaa(lp935
(lp936
I0
aI0
aa(lp937
I23
aI0
aa(lp938
I0
aI0
aa(lp939
I1
aI0
aa(lp940
I0
aI0
aa(lp941
I0
aI0
aa(lp942
I0
aI0
aa(lp943
I0
aI0
aa(lp944
I0
aI0
aa(lp945
I0
aI0
aa(lp946
I0
aI0
aa(lp947
I0
aI0
aaa(lp948
(lp949
I0
aI0
aa(lp950
I23
aI0
aa(lp951
I0
aI0
aa(lp952
I1
aI0
aa(lp953
I0
aI0
aa(lp954
I0
aI0
aa(lp955
I0
aI0
aa(lp956
I0
aI0
aa(lp957
I8
aI0
aa(lp958
I0
aI0
aa(lp959
I0
aI0
aa(lp960
I0
aI0
aaa(lp961
(lp962
I0
aI0
aa(lp963
I23
aI0
aa(lp964
I0
aI0
aa(lp965
I1
aI0
aa(lp966
I5
aI0
aa(lp967
I8
aI0
aa(lp968
I0
aI0
aa(lp969
I0
aI0
aa(lp970
I0
aI0
aa(lp971
I0
aI0
aa(lp972
I15
aI0
aa(lp973
I0
aI0
aaa(lp974
(lp975
I0
aI0
aa(lp976
I23
aI0
aa(lp977
I0
aI0
aa(lp978
I1
aI0
aa(lp979
I1
aI0
aa(lp980
I1
aI0
aa(lp981
I0
aI0
aa(lp982
I0
aI0
aa(lp983
I0
aI0
aa(lp984
I0
aI0
aa(lp985
I2
aI0
aa(lp986
I0
aI0
aaa(lp987
(lp988
I0
aI0
aa(lp989
I23
aI0
aa(lp990
I0
aI0
aa(lp991
I0
aI0
aa(lp992
I22
aI0
aa(lp993
I1
aI0
aa(lp994
I1
aI0
aa(lp995
I1
aI0
aa(lp996
I0
aI0
aa(lp997
I0
aI0
aa(lp998
I0
aI0
aa(lp999
I0
aI0
aaa(lp1000
(lp1001
I0
aI0
aa(lp1002
I23
aI0
aa(lp1003
I14
aI0
aa(lp1004
I8
aI0
aa(lp1005
I0
aI0
aa(lp1006
I0
aI0
aa(lp1007
I0
aI0
aa(lp1008
I1
aI0
aa(lp1009
I0
aI0
aa(lp1010
I8
aI0
aa(lp1011
I0
aI0
aa(lp1012
I0
aI0
aaa(lp1013
(lp1014
I0
aI0
aa(lp1015
I23
aI0
aa(lp1016
I1
aI0
aa(lp1017
I1
aI0
aa(lp1018
I1
aI0
aa(lp1019
I1
aI0
aa(lp1020
I22
aI0
aa(lp1021
I1
aI0
aa(lp1022
I0
aI0
aa(lp1023
I0
aI0
aa(lp1024
I11
a(I39
I6
tp1025
aa(lp1026
I3
aI0
aaa(lp1027
(lp1028
I0
aI0
aa(lp1029
I23
aI0
aa(lp1030
I0
aI0
aa(lp1031
I0
aI0
aa(lp1032
I0
aI0
aa(lp1033
I0
aI0
aa(lp1034
I0
aI0
aa(lp1035
I14
aI0
aa(lp1036
I8
aI0
aa(lp1037
I0
aI0
aa(lp1038
I1
aI0
aa(lp1039
I1
aI0
aaa(lp1040
(lp1041
I0
aI0
aa(lp1042
I12
a(I47
I3
tp1043
aa(lp1044
I0
aI0
aa(lp1045
I14
aI0
aa(lp1046
I25
aI0
aa(lp1047
I0
aI0
aa(lp1048
I0
aI0
aa(lp1049
I1
aI0
aa(lp1050
I1
aI0
aa(lp1051
I1
aI0
aa(lp1052
I1
aI0
aa(lp1053
I10
aI0
aaa(lp1054
(lp1055
I7
a(I47
I2
tp1056
aa(lp1057
I23
aI0
aa(lp1058
I0
aI0
aa(lp1059
I13
aI0
aa(lp1060
I10
aI0
aa(lp1061
I25
aI0
aa(lp1062
I14
aI0
aa(lp1063
I14
aI0
aa(lp1064
I14
aI0
aa(lp1065
I14
aI0
aa(lp1066
I14
aI0
aa(lp1067
I14
aI0
aaaa(lp1068
(lp1069
(lp1070
I8
aI0
aa(lp1071
I0
aI0
aa(lp1072
I0
aI0
aa(lp1073
I0
aI0
aa(lp1074
I0
aI0
aa(lp1075
I0
aI0
aa(lp1076
I0
aI0
aa(lp1077
I0
aI0
aa(lp1078
I0
aI0
aa(lp1079
I0
aI0
aa(lp1080
I7
a(I0
I12
tp1081
aa(lp1082
I23
aI0
aa(lp1083
I0
aI0
aa(lp1084
I3
aI0
aa(lp1085
I0
aI0
aa(lp1086
I0
aI0
aa(lp1087
I13
aI0
aa(lp1088
I9
aI0
aa(lp1089
I0
aI0
aa(lp1090
I0
aI0
aa(lp1091
I0
aI0
aa(lp1092
I0
aI0
aa(lp1093
I3
aI0
aa(lp1094
I13
aI0
aa(lp1095
I9
aI0
aa(lp1096
I0
aI0
aa(lp1097
I0
aI0
aa(lp1098
I0
aI0
aa(lp1099
I8
aI0
aa(lp1100
I0
aI0
aa(lp1101
I0
aI0
aa(lp1102
I20
aI0
aa(lp1103
I0
aI0
aa(lp1104
I0
aI0
aa(lp1105
I0
aI0
aa(lp1106
I0
aI0
aa(lp1107
I0
aI0
aa(lp1108
I0
aI0
aa(lp1109
I0
aI0
aa(lp1110
I21
aI0
aaa(lp1111
(lp1112
I0
aI0
aa(lp1113
I12
a(I1
I3
tp1114
aa(lp1115
I17
aI0
aa(lp1116
I0
aI0
aa(lp1117
I0
aI0
aa(lp1118
I0
aI0
aa(lp1119
I0
aI0
aa(lp1120
I0
aI0
aa(lp1121
I0
aI0
aa(lp1122
I0
aI0
aa(lp1123
I0
aI0
aa(lp1124
I23
aI0
aa(lp1125
I3
aI0
aa(lp1126
I21
aI0
aa(lp1127
I3
aI0
aa(lp1128
I21
aI0
aa(lp1129
I13
aI0
aa(lp1130
I2
aI0
aa(lp1131
I2
aI0
aa(lp1132
I9
aI0
aa(lp1133
I2
aI0
aa(lp1134
I2
aI0
aa(lp1135
I2
aI0
aa(lp1136
I13
aI0
aa(lp1137
I0
aI0
aa(lp1138
I0
aI0
aa(lp1139
I14
aI0
aa(lp1140
I8
aI0
aa(lp1141
I14
aI0
aa(lp1142
I14
aI0
aa(lp1143
I25
aI0
aa(lp1144
I25
aI0
aa(lp1145
I25
aI0
aa(lp1146
I25
aI0
aa(lp1147
I8
aI0
aa(lp1148
I0
aI0
aa(lp1149
I0
aI0
aa(lp1150
I13
aI0
aa(lp1151
I12
a(I2
I36
tp1152
aa(lp1153
I20
aI0
aaa(lp1154
(lp1155
I0
aI0
aa(lp1156
I12
a(I2
I3
tp1157
aa(lp1158
I17
aI0
aa(lp1159
I0
aI0
aa(lp1160
I0
aI0
aa(lp1161
I0
aI0
aa(lp1162
I0
aI0
aa(lp1163
I0
aI0
aa(lp1164
I0
aI0
aa(lp1165
I0
aI0
aa(lp1166
I0
aI0
aa(lp1167
I23
aI0
aa(lp1168
I0
aI0
aa(lp1169
I0
aI0
aa(lp1170
I0
aI0
aa(lp1171
I0
aI0
aa(lp1172
I13
aI0
aa(lp1173
I0
aI0
aa(lp1174
I0
aI0
aa(lp1175
I0
aI0
aa(lp1176
I0
aI0
aa(lp1177
I0
aI0
aa(lp1178
I0
aI0
aa(lp1179
I13
aI0
aa(lp1180
I0
aI0
aa(lp1181
I0
aI0
aa(lp1182
I0
aI0
aa(lp1183
I14
aI0
aa(lp1184
I8
aI0
aa(lp1185
I25
aI0
aa(lp1186
I25
aI0
aa(lp1187
I0
aI0
aa(lp1188
I4
aI0
aa(lp1189
I25
aI0
aa(lp1190
I25
aI0
aa(lp1191
I0
aI0
aa(lp1192
I0
aI0
aa(lp1193
I0
aI0
aa(lp1194
I0
aI0
aa(lp1195
I0
aI0
aaa(lp1196
(lp1197
I0
aI0
aa(lp1198
I12
a(I3
I3
tp1199
aa(lp1200
I17
aI0
aa(lp1201
I0
aI0
aa(lp1202
I0
aI0
aa(lp1203
I0
aI0
aa(lp1204
I0
aI0
aa(lp1205
I0
aI0
aa(lp1206
I0
aI0
aa(lp1207
I0
aI0
aa(lp1208
I0
aI0
aa(lp1209
I23
aI0
aa(lp1210
I3
aI0
aa(lp1211
I21
aI0
aa(lp1212
I3
aI0
aa(lp1213
I21
aI0
aa(lp1214
I13
aI0
aa(lp1215
I9
aI0
aa(lp1216
I0
aI0
aa(lp1217
I2
aI0
aa(lp1218
I2
aI0
aa(lp1219
I2
aI0
aa(lp1220
I9
aI0
aa(lp1221
I13
aI0
aa(lp1222
I2
aI0
aa(lp1223
I25
aI0
aa(lp1224
I25
aI0
aa(lp1225
I7
a(I0
I17
tp1226
aa(lp1227
I25
aI0
aa(lp1228
I25
aI0
aa(lp1229
I16
aI0
aa(lp1230
I0
aI0
aa(lp1231
I2
aI0
aa(lp1232
I22
aI0
aa(lp1233
I25
aI0
aa(lp1234
I3
aI0
aa(lp1235
I18
aI0
aa(lp1236
I0
aI0
aa(lp1237
I20
aI0
aa(lp1238
I21
aI0
aaa(lp1239
(lp1240
I0
aI0
aa(lp1241
I12
a(I4
I3
tp1242
aa(lp1243
I17
aI0
aa(lp1244
I0
aI0
aa(lp1245
I0
aI0
aa(lp1246
I0
aI0
aa(lp1247
I0
aI0
aa(lp1248
I0
aI0
aa(lp1249
I0
aI0
aa(lp1250
I0
aI0
aa(lp1251
I0
aI0
aa(lp1252
I23
aI0
aa(lp1253
I0
aI0
aa(lp1254
I0
aI0
aa(lp1255
I0
aI0
aa(lp1256
I3
aI0
aa(lp1257
I21
aI0
aa(lp1258
I13
aI0
aa(lp1259
I13
aI0
aa(lp1260
I13
aI0
aa(lp1261
I0
aI0
aa(lp1262
I13
aI0
aa(lp1263
I13
aI0
aa(lp1264
I0
aI0
aa(lp1265
I0
aI0
aa(lp1266
I0
aI0
aa(lp1267
I25
aI0
aa(lp1268
I25
aI0
aa(lp1269
I25
aI0
aa(lp1270
I0
aI0
aa(lp1271
I0
aI0
aa(lp1272
I8
aI0
aa(lp1273
I22
aI0
aa(lp1274
I0
aI0
aa(lp1275
I8
aI0
aa(lp1276
I25
aI0
aa(lp1277
I25
aI0
aa(lp1278
I4
aI0
aa(lp1279
I25
aI0
aa(lp1280
I25
aI0
aaa(lp1281
(lp1282
I0
aI0
aa(lp1283
I12
a(I5
I3
tp1284
aa(lp1285
I17
aI0
aa(lp1286
I0
aI0
aa(lp1287
I0
aI0
aa(lp1288
I0
aI0
aa(lp1289
I0
aI0
aa(lp1290
I0
aI0
aa(lp1291
I0
aI0
aa(lp1292
I0
aI0
aa(lp1293
I0
aI0
aa(lp1294
I23
aI0
aa(lp1295
I21
aI0
aa(lp1296
I20
aI0
aa(lp1297
I21
aI0
aa(lp1298
I3
aI0
aa(lp1299
I0
aI0
aa(lp1300
I0
aI0
aa(lp1301
I3
aI0
aa(lp1302
I21
aI0
aa(lp1303
I0
aI0
aa(lp1304
I0
aI0
aa(lp1305
I0
aI0
aa(lp1306
I0
aI0
aa(lp1307
I13
aI0
aa(lp1308
I0
aI0
aa(lp1309
I20
aI0
aa(lp1310
I0
aI0
aa(lp1311
I0
aI0
aa(lp1312
I0
aI0
aa(lp1313
I0
aI0
aa(lp1314
I0
aI0
aa(lp1315
I14
aI0
aa(lp1316
I22
aI0
aa(lp1317
I0
aI0
aa(lp1318
I14
aI0
aa(lp1319
I14
aI0
aa(lp1320
I21
aI0
aa(lp1321
I0
aI0
aa(lp1322
I0
aI0
aaa(lp1323
(lp1324
I0
aI0
aa(lp1325
I12
a(I6
I3
tp1326
aa(lp1327
I17
aI0
aa(lp1328
I0
aI0
aa(lp1329
I0
aI0
aa(lp1330
I0
aI0
aa(lp1331
I0
aI0
aa(lp1332
I0
aI0
aa(lp1333
I0
aI0
aa(lp1334
I0
aI0
aa(lp1335
I0
aI0
aa(lp1336
I23
aI0
aa(lp1337
I0
aI0
aa(lp1338
I0
aI0
aa(lp1339
I3
aI0
aa(lp1340
I0
aI0
aa(lp1341
I0
aI0
aa(lp1342
I21
aI0
aa(lp1343
I0
aI0
aa(lp1344
I13
aI0
aa(lp1345
I0
aI0
aa(lp1346
I13
aI0
aa(lp1347
I0
aI0
aa(lp1348
I13
aI0
aa(lp1349
I0
aI0
aa(lp1350
I13
aI0
aa(lp1351
I25
aI0
aa(lp1352
I25
aI0
aa(lp1353
I25
aI0
aa(lp1354
I4
aI0
aa(lp1355
I0
aI0
aa(lp1356
I8
aI0
aa(lp1357
I8
aI0
aa(lp1358
I0
aI0
aa(lp1359
I22
aI0
aa(lp1360
I25
aI0
aa(lp1361
I25
aI0
aa(lp1362
I13
aI0
aa(lp1363
I0
aI0
aa(lp1364
I6
aI0
aaa(lp1365
(lp1366
I0
aI0
aa(lp1367
I12
a(I7
I3
tp1368
aa(lp1369
I17
aI0
aa(lp1370
I0
aI0
aa(lp1371
I0
aI0
aa(lp1372
I0
aI0
aa(lp1373
I0
aI0
aa(lp1374
I0
aI0
aa(lp1375
I0
aI0
aa(lp1376
I0
aI0
aa(lp1377
I0
aI0
aa(lp1378
I23
aI0
aa(lp1379
I0
aI0
aa(lp1380
I21
aI0
aa(lp1381
I0
aI0
aa(lp1382
I21
aI0
aa(lp1383
I0
aI0
aa(lp1384
I3
aI0
aa(lp1385
I0
aI0
aa(lp1386
I13
aI0
aa(lp1387
I14
aI0
aa(lp1388
I13
aI0
aa(lp1389
I3
aI0
aa(lp1390
I12
a(I9
I25
tp1391
aa(lp1392
I0
aI0
aa(lp1393
I25
aI0
aa(lp1394
I25
aI0
aa(lp1395
I9
aI0
aa(lp1396
I25
aI0
aa(lp1397
I25
aI0
aa(lp1398
I0
aI0
aa(lp1399
I0
aI0
aa(lp1400
I2
aI0
aa(lp1401
I21
aI0
aa(lp1402
I25
aI0
aa(lp1403
I3
aI0
aa(lp1404
I25
aI0
aa(lp1405
I8
aI0
aa(lp1406
I6
aI0
aa(lp1407
I6
aI0
aaa(lp1408
(lp1409
I0
aI0
aa(lp1410
I12
a(I8
I3
tp1411
aa(lp1412
I17
aI0
aa(lp1413
I0
aI0
aa(lp1414
I0
aI0
aa(lp1415
I0
aI0
aa(lp1416
I0
aI0
aa(lp1417
I0
aI0
aa(lp1418
I0
aI0
aa(lp1419
I0
aI0
aa(lp1420
I0
aI0
aa(lp1421
I23
aI0
aa(lp1422
I3
aI0
aa(lp1423
I0
aI0
aa(lp1424
I0
aI0
aa(lp1425
I0
aI0
aa(lp1426
I25
aI0
aa(lp1427
I12
a(I10
I19
tp1428
aa(lp1429
I13
aI0
aa(lp1430
I0
aI0
aa(lp1431
I0
aI0
aa(lp1432
I0
aI0
aa(lp1433
I13
aI0
aa(lp1434
I23
aI0
aa(lp1435
I0
aI0
aa(lp1436
I0
aI0
aa(lp1437
I0
aI0
aa(lp1438
I0
aI0
aa(lp1439
I0
aI0
aa(lp1440
I25
aI0
aa(lp1441
I25
aI0
aa(lp1442
I0
aI0
aa(lp1443
I11
a(I6
I37
tp1444
aa(lp1445
I25
aI0
aa(lp1446
I25
aI0
aa(lp1447
I21
aI0
aa(lp1448
I3
aI0
aa(lp1449
I23
aI0
aa(lp1450
I24
aI0
aa(lp1451
I0
aI0
aaa(lp1452
(lp1453
I0
aI0
aa(lp1454
I12
a(I9
I3
tp1455
aa(lp1456
I17
aI0
aa(lp1457
I0
aI0
aa(lp1458
I0
aI0
aa(lp1459
I0
aI0
aa(lp1460
I0
aI0
aa(lp1461
I0
aI0
aa(lp1462
I0
aI0
aa(lp1463
I0
aI0
aa(lp1464
I0
aI0
aa(lp1465
I23
aI0
aa(lp1466
I23
aI0
aa(lp1467
I1
aI0
aa(lp1468
I1
aI0
aa(lp1469
I1
aI0
aa(lp1470
I24
aI0
aa(lp1471
I0
aI0
aa(lp1472
I0
aI0
aa(lp1473
I0
aI0
aa(lp1474
I13
aI0
aa(lp1475
I0
aI0
aa(lp1476
I3
aI0
aa(lp1477
I23
aI0
aa(lp1478
I0
aI0
aa(lp1479
I13
aI0
aa(lp1480
I0
aI0
aa(lp1481
I3
aI0
aa(lp1482
I8
aI0
aa(lp1483
I9
aI0
aa(lp1484
I25
aI0
aa(lp1485
I25
aI0
aa(lp1486
I25
aI0
aa(lp1487
I25
aI0
aa(lp1488
I8
aI0
aa(lp1489
I0
aI0
aa(lp1490
I21
aI0
aa(lp1491
I23
aI0
aa(lp1492
I1
aI0
aa(lp1493
I0
aI0
aaa(lp1494
(lp1495
I0
aI0
aa(lp1496
I12
a(I10
I3
tp1497
aa(lp1498
I17
aI0
aa(lp1499
I0
aI0
aa(lp1500
I0
aI0
aa(lp1501
I0
aI0
aa(lp1502
I0
aI0
aa(lp1503
I0
aI0
aa(lp1504
I0
aI0
aa(lp1505
I0
aI0
aa(lp1506
I0
aI0
aa(lp1507
I23
aI0
aa(lp1508
I0
aI0
aa(lp1509
I8
aI0
aa(lp1510
I3
aI0
aa(lp1511
I0
aI0
aa(lp1512
I8
aI0
aa(lp1513
I14
aI0
aa(lp1514
I13
aI0
aa(lp1515
I13
aI0
aa(lp1516
I13
aI0
aa(lp1517
I0
aI0
aa(lp1518
I14
aI0
aa(lp1519
I23
aI0
aa(lp1520
I20
aI0
aa(lp1521
I0
aI0
aa(lp1522
I0
aI0
aa(lp1523
I8
aI0
aa(lp1524
I9
aI0
aa(lp1525
I14
aI0
aa(lp1526
I8
aI0
aa(lp1527
I0
aI0
aa(lp1528
I0
aI0
aa(lp1529
I13
aI0
aa(lp1530
I5
aI0
aa(lp1531
I8
aI0
aa(lp1532
I0
aI0
aa(lp1533
I10
aI0
aa(lp1534
I24
aI0
aa(lp1535
I0
aI0
aaa(lp1536
(lp1537
I0
aI0
aa(lp1538
I12
a(I11
I3
tp1539
aa(lp1540
I17
aI0
aa(lp1541
I0
aI0
aa(lp1542
I0
aI0
aa(lp1543
I0
aI0
aa(lp1544
I0
aI0
aa(lp1545
I0
aI0
aa(lp1546
I0
aI0
aa(lp1547
I0
aI0
aa(lp1548
I0
aI0
aa(lp1549
I23
aI0
aa(lp1550
I0
aI0
aa(lp1551
I8
aI0
aa(lp1552
I0
aI0
aa(lp1553
I0
aI0
aa(lp1554
I13
aI0
aa(lp1555
I21
aI0
aa(lp1556
I0
aI0
aa(lp1557
I0
aI0
aa(lp1558
I13
aI0
aa(lp1559
I14
aI0
aa(lp1560
I14
aI0
aa(lp1561
I13
aI0
aa(lp1562
I0
aI0
aa(lp1563
I5
aI0
aa(lp1564
I22
aI0
aa(lp1565
I0
aI0
aa(lp1566
I0
aI0
aa(lp1567
I0
aI0
aa(lp1568
I0
aI0
aa(lp1569
I13
aI0
aa(lp1570
I0
aI0
aa(lp1571
I13
aI0
aa(lp1572
I0
aI0
aa(lp1573
I3
aI0
aa(lp1574
I13
aI0
aa(lp1575
I0
aI0
aa(lp1576
I0
aI0
aa(lp1577
I0
aI0
aaa(lp1578
(lp1579
I0
aI0
aa(lp1580
I12
a(I12
I3
tp1581
aa(lp1582
I17
aI0
aa(lp1583
I0
aI0
aa(lp1584
I0
aI0
aa(lp1585
I0
aI0
aa(lp1586
I0
aI0
aa(lp1587
I0
aI0
aa(lp1588
I0
aI0
aa(lp1589
I0
aI0
aa(lp1590
I0
aI0
aa(lp1591
I23
aI0
aa(lp1592
I0
aI0
aa(lp1593
I8
aI0
aa(lp1594
I2
aI0
aa(lp1595
I0
aI0
aa(lp1596
I13
aI0
aa(lp1597
I20
aI0
aa(lp1598
I0
aI0
aa(lp1599
I13
aI0
aa(lp1600
I8
aI0
aa(lp1601
I8
aI0
aa(lp1602
I8
aI0
aa(lp1603
I13
aI0
aa(lp1604
I2
aI0
aa(lp1605
I22
aI0
aa(lp1606
I5
aI0
aa(lp1607
I22
aI0
aa(lp1608
I0
aI0
aa(lp1609
I14
aI0
aa(lp1610
I13
aI0
aa(lp1611
I14
aI0
aa(lp1612
I8
aI0
aa(lp1613
I0
aI0
aa(lp1614
I13
aI0
aa(lp1615
I20
aI0
aa(lp1616
I13
aI0
aa(lp1617
I13
aI0
aa(lp1618
I13
aI0
aa(lp1619
I0
aI0
aaa(lp1620
(lp1621
I0
aI0
aa(lp1622
I12
a(I13
I3
tp1623
aa(lp1624
I17
aI0
aa(lp1625
I0
aI0
aa(lp1626
I0
aI0
aa(lp1627
I0
aI0
aa(lp1628
I0
aI0
aa(lp1629
I0
aI0
aa(lp1630
I0
aI0
aa(lp1631
I0
aI0
aa(lp1632
I0
aI0
aa(lp1633
I23
aI0
aa(lp1634
I0
aI0
aa(lp1635
I8
aI0
aa(lp1636
I2
aI0
aa(lp1637
I0
aI0
aa(lp1638
I13
aI0
aa(lp1639
I0
aI0
aa(lp1640
I0
aI0
aa(lp1641
I0
aI0
aa(lp1642
I13
aI0
aa(lp1643
I13
aI0
aa(lp1644
I8
aI0
aa(lp1645
I13
aI0
aa(lp1646
I0
aI0
aa(lp1647
I5
aI0
aa(lp1648
I22
aI0
aa(lp1649
I0
aI0
aa(lp1650
I0
aI0
aa(lp1651
I0
aI0
aa(lp1652
I9
aI0
aa(lp1653
I13
aI0
aa(lp1654
I0
aI0
aa(lp1655
I13
aI0
aa(lp1656
I5
aI0
aa(lp1657
I22
aI0
aa(lp1658
I21
aI0
aa(lp1659
I0
aI0
aa(lp1660
I13
aI0
aa(lp1661
I0
aI0
aaa(lp1662
(lp1663
I0
aI0
aa(lp1664
I12
a(I14
I3
tp1665
aa(lp1666
I17
aI0
aa(lp1667
I0
aI0
aa(lp1668
I0
aI0
aa(lp1669
I0
aI0
aa(lp1670
I0
aI0
aa(lp1671
I13
aI0
aa(lp1672
I0
aI0
aa(lp1673
I13
aI0
aa(lp1674
I0
aI0
aa(lp1675
I23
aI0
aa(lp1676
I4
aI0
aa(lp1677
I8
aI0
aa(lp1678
I5
aI0
aa(lp1679
I22
aI0
aa(lp1680
I13
aI0
aa(lp1681
I13
aI0
aa(lp1682
I13
aI0
aa(lp1683
I13
aI0
aa(lp1684
I13
aI0
aa(lp1685
I14
aI0
aa(lp1686
I8
aI0
aa(lp1687
I13
aI0
aa(lp1688
I13
aI0
aa(lp1689
I13
aI0
aa(lp1690
I13
aI0
aa(lp1691
I0
aI0
aa(lp1692
I20
aI0
aa(lp1693
I0
aI0
aa(lp1694
I0
aI0
aa(lp1695
I13
aI0
aa(lp1696
I0
aI0
aa(lp1697
I13
aI0
aa(lp1698
I22
aI0
aa(lp1699
I22
aI0
aa(lp1700
I0
aI0
aa(lp1701
I0
aI0
aa(lp1702
I13
aI0
aa(lp1703
I0
aI0
aaa(lp1704
(lp1705
I4
aI0
aa(lp1706
I12
a(I15
I3
tp1707
aa(lp1708
I17
aI0
aa(lp1709
I0
aI0
aa(lp1710
I0
aI0
aa(lp1711
I0
aI0
aa(lp1712
I0
aI0
aa(lp1713
I13
aI0
aa(lp1714
I3
aI0
aa(lp1715
I13
aI0
aa(lp1716
I0
aI0
aa(lp1717
I23
aI0
aa(lp1718
I7
a(I15
I10
tp1719
aa(lp1720
I18
aI0
aa(lp1721
I0
aI0
aa(lp1722
I0
aI0
aa(lp1723
I12
a(I14
I19
tp1724
aa(lp1725
I4
aI0
aa(lp1726
I0
aI0
aa(lp1727
I0
aI0
aa(lp1728
I11
a(I13
I19
tp1729
aa(lp1730
I13
aI0
aa(lp1731
I0
aI0
aa(lp1732
I0
aI0
aa(lp1733
I0
aI0
aa(lp1734
I0
aI0
aa(lp1735
I0
aI0
aa(lp1736
I0
aI0
aa(lp1737
I0
aI0
aa(lp1738
I9
aI0
aa(lp1739
I13
aI0
aa(lp1740
I13
aI0
aa(lp1741
I0
aI0
aa(lp1742
I0
aI0
aa(lp1743
I8
aI0
aa(lp1744
I0
aI0
aa(lp1745
I8
aI0
aa(lp1746
I0
aI0
aa(lp1747
I0
aI0
aa(lp1748
I0
aI0
aaaa(lp1749
(lp1750
(lp1751
I0
aI0
aa(lp1752
I0
aI0
aa(lp1753
I0
aI0
aa(lp1754
I0
aI0
aa(lp1755
I13
aI0
aa(lp1756
I15
aI0
aa(lp1757
I3
aI0
aa(lp1758
I0
aI0
aa(lp1759
I0
aI0
aa(lp1760
I0
aI0
aa(lp1761
I0
aI0
aa(lp1762
I13
aI0
aa(lp1763
I0
aI0
aa(lp1764
I13
aI0
aa(lp1765
I0
aI0
aa(lp1766
I21
aI0
aa(lp1767
I0
aI0
aa(lp1768
I0
aI0
aa(lp1769
I0
aI0
aa(lp1770
I0
aI0
aa(lp1771
I13
aI0
aa(lp1772
I12
a(I7
I21
tp1773
aa(lp1774
I7
a(I5
I21
tp1775
aa(lp1776
I23
aI0
aa(lp1777
I0
aI0
aa(lp1778
I0
aI0
aa(lp1779
I0
aI0
aa(lp1780
I23
aI0
aa(lp1781
I0
aI0
aa(lp1782
I0
aI0
aa(lp1783
I0
aI0
aa(lp1784
I23
aI0
aaa(lp1785
(lp1786
I0
aI0
aa(lp1787
I6
aI0
aa(lp1788
I0
aI0
aa(lp1789
I0
aI0
aa(lp1790
I13
aI0
aa(lp1791
I15
aI0
aa(lp1792
I12
a(I0
I4
tp1793
aa(lp1794
I0
aI0
aa(lp1795
I0
aI0
aa(lp1796
I8
aI0
aa(lp1797
I0
aI0
aa(lp1798
I0
aI0
aa(lp1799
I0
aI0
aa(lp1800
I0
aI0
aa(lp1801
I0
aI0
aa(lp1802
I13
aI0
aa(lp1803
I13
aI0
aa(lp1804
I0
aI0
aa(lp1805
I0
aI0
aa(lp1806
I0
aI0
aa(lp1807
I14
aI0
aa(lp1808
I8
aI0
aa(lp1809
I0
aI0
aa(lp1810
I23
aI0
aa(lp1811
I0
aI0
aa(lp1812
I23
aI0
aa(lp1813
I0
aI0
aa(lp1814
I23
aI0
aa(lp1815
I0
aI0
aa(lp1816
I23
aI0
aa(lp1817
I0
aI0
aa(lp1818
I23
aI0
aaa(lp1819
(lp1820
I12
a(I4
I1
tp1821
aa(lp1822
I0
aI0
aa(lp1823
I13
aI0
aa(lp1824
I0
aI0
aa(lp1825
I0
aI0
aa(lp1826
I0
aI0
aa(lp1827
I0
aI0
aa(lp1828
I0
aI0
aa(lp1829
I0
aI0
aa(lp1830
I4
aI0
aa(lp1831
I0
aI0
aa(lp1832
I13
aI0
aa(lp1833
I0
aI0
aa(lp1834
I13
aI0
aa(lp1835
I0
aI0
aa(lp1836
I13
aI0
aa(lp1837
I13
aI0
aa(lp1838
I13
aI0
aa(lp1839
I0
aI0
aa(lp1840
I13
aI0
aa(lp1841
I13
aI0
aa(lp1842
I0
aI0
aa(lp1843
I9
aI0
aa(lp1844
I23
aI0
aa(lp1845
I0
aI0
aa(lp1846
I23
aI0
aa(lp1847
I0
aI0
aa(lp1848
I23
aI0
aa(lp1849
I0
aI0
aa(lp1850
I23
aI0
aa(lp1851
I0
aI0
aa(lp1852
I23
aI0
aaa(lp1853
(lp1854
I0
aI0
aa(lp1855
I0
aI0
aa(lp1856
I0
aI0
aa(lp1857
I2
aI0
aa(lp1858
I0
aI0
aa(lp1859
I0
aI0
aa(lp1860
I12
a(I1
I4
tp1861
aa(lp1862
I0
aI0
aa(lp1863
I0
aI0
aa(lp1864
I0
aI0
aa(lp1865
I13
aI0
aa(lp1866
I0
aI0
aa(lp1867
I0
aI0
aa(lp1868
I13
aI0
aa(lp1869
I0
aI0
aa(lp1870
I13
aI0
aa(lp1871
I13
aI0
aa(lp1872
I0
aI0
aa(lp1873
I0
aI0
aa(lp1874
I0
aI0
aa(lp1875
I13
aI0
aa(lp1876
I0
aI0
aa(lp1877
I0
aI0
aa(lp1878
I23
aI0
aa(lp1879
I0
aI0
aa(lp1880
I23
aI0
aa(lp1881
I0
aI0
aa(lp1882
I23
aI0
aa(lp1883
I0
aI0
aa(lp1884
I23
aI0
aa(lp1885
I0
aI0
aa(lp1886
I23
aI0
aaa(lp1887
(lp1888
I0
aI0
aa(lp1889
I13
aI0
aa(lp1890
I0
aI0
aa(lp1891
I0
aI0
aa(lp1892
I0
aI0
aa(lp1893
I0
aI0
aa(lp1894
I1
aI0
aa(lp1895
I13
aI0
aa(lp1896
I0
aI0
aa(lp1897
I13
aI0
aa(lp1898
I14
aI0
aa(lp1899
I14
aI0
aa(lp1900
I8
aI0
aa(lp1901
I13
aI0
aa(lp1902
I0
aI0
aa(lp1903
I13
aI0
aa(lp1904
I13
aI0
aa(lp1905
I0
aI0
aa(lp1906
I22
aI0
aa(lp1907
I0
aI0
aa(lp1908
I13
aI0
aa(lp1909
I0
aI0
aa(lp1910
I0
aI0
aa(lp1911
I23
aI0
aa(lp1912
I0
aI0
aa(lp1913
I23
aI0
aa(lp1914
I0
aI0
aa(lp1915
I23
aI0
aa(lp1916
I0
aI0
aa(lp1917
I23
aI0
aa(lp1918
I0
aI0
aa(lp1919
I23
aI0
aaa(lp1920
(lp1921
I0
aI0
aa(lp1922
I18
aI0
aa(lp1923
I0
aI0
aa(lp1924
I0
aI0
aa(lp1925
I0
aI0
aa(lp1926
I1
aI0
aa(lp1927
I13
aI0
aa(lp1928
I13
aI0
aa(lp1929
I0
aI0
aa(lp1930
I0
aI0
aa(lp1931
I13
aI0
aa(lp1932
I13
aI0
aa(lp1933
I0
aI0
aa(lp1934
I0
aI0
aa(lp1935
I0
aI0
aa(lp1936
I13
aI0
aa(lp1937
I13
aI0
aa(lp1938
I0
aI0
aa(lp1939
I4
aI0
aa(lp1940
I0
aI0
aa(lp1941
I13
aI0
aa(lp1942
I0
aI0
aa(lp1943
I0
aI0
aa(lp1944
I23
aI0
aa(lp1945
I0
aI0
aa(lp1946
I23
aI0
aa(lp1947
I0
aI0
aa(lp1948
I23
aI0
aa(lp1949
I0
aI0
aa(lp1950
I23
aI0
aa(lp1951
I0
aI0
aa(lp1952
I23
aI0
aaa(lp1953
(lp1954
I0
aI0
aa(lp1955
I0
aI0
aa(lp1956
I5
aI0
aa(lp1957
I5
aI0
aa(lp1958
I1
aI0
aa(lp1959
I0
aI0
aa(lp1960
I0
aI0
aa(lp1961
I0
aI0
aa(lp1962
I0
aI0
aa(lp1963
I0
aI0
aa(lp1964
I0
aI0
aa(lp1965
I13
aI0
aa(lp1966
I13
aI0
aa(lp1967
I13
aI0
aa(lp1968
I0
aI0
aa(lp1969
I13
aI0
aa(lp1970
I13
aI0
aa(lp1971
I13
aI0
aa(lp1972
I13
aI0
aa(lp1973
I0
aI0
aa(lp1974
I13
aI0
aa(lp1975
I0
aI0
aa(lp1976
I0
aI0
aa(lp1977
I23
aI0
aa(lp1978
I0
aI0
aa(lp1979
I23
aI0
aa(lp1980
I0
aI0
aa(lp1981
I23
aI0
aa(lp1982
I0
aI0
aa(lp1983
I23
aI0
aa(lp1984
I0
aI0
aa(lp1985
I23
aI0
aaa(lp1986
(lp1987
I14
aI0
aa(lp1988
I8
aI0
aa(lp1989
I0
aI0
aa(lp1990
I1
aI0
aa(lp1991
I0
aI0
aa(lp1992
I0
aI0
aa(lp1993
I5
aI0
aa(lp1994
I8
aI0
aa(lp1995
I0
aI0
aa(lp1996
I2
aI0
aa(lp1997
I0
aI0
aa(lp1998
I13
aI0
aa(lp1999
I8
aI0
aa(lp2000
I0
aI0
aa(lp2001
I0
aI0
aa(lp2002
I13
aI0
aa(lp2003
I13
aI0
aa(lp2004
I0
aI0
aa(lp2005
I0
aI0
aa(lp2006
I0
aI0
aa(lp2007
I17
aI0
aa(lp2008
I13
aI0
aa(lp2009
I0
aI0
aa(lp2010
I12
a(I15
I25
tp2011
aa(lp2012
I0
aI0
aa(lp2013
I12
a(I15
I25
tp2014
aa(lp2015
I0
aI0
aa(lp2016
I12
a(I15
I25
tp2017
aa(lp2018
I0
aI0
aa(lp2019
I12
a(I15
I25
tp2020
aa(lp2021
I0
aI0
aa(lp2022
I8
aI0
aaa(lp2023
(lp2024
I14
aI0
aa(lp2025
I8
aI0
aa(lp2026
I1
aI0
aa(lp2027
I8
aI0
aa(lp2028
I0
aI0
aa(lp2029
I2
aI0
aa(lp2030
I0
aI0
aa(lp2031
I0
aI0
aa(lp2032
I0
aI0
aa(lp2033
I4
aI0
aa(lp2034
I0
aI0
aa(lp2035
I13
aI0
aa(lp2036
I14
aI0
aa(lp2037
I8
aI0
aa(lp2038
I0
aI0
aa(lp2039
I13
aI0
aa(lp2040
I13
aI0
aa(lp2041
I0
aI0
aa(lp2042
I20
aI0
aa(lp2043
I0
aI0
aa(lp2044
I13
aI0
aa(lp2045
I0
aI0
aa(lp2046
I0
aI0
aa(lp2047
I23
aI0
aa(lp2048
I0
aI0
aa(lp2049
I23
aI0
aa(lp2050
I0
aI0
aa(lp2051
I23
aI0
aa(lp2052
I0
aI0
aa(lp2053
I23
aI0
aa(lp2054
I0
aI0
aa(lp2055
I8
aI0
aaa(lp2056
(lp2057
I0
aI0
aa(lp2058
I13
aI0
aa(lp2059
I0
aI0
aa(lp2060
I0
aI0
aa(lp2061
I0
aI0
aa(lp2062
I0
aI0
aa(lp2063
I15
aI0
aa(lp2064
I18
aI0
aa(lp2065
I13
aI0
aa(lp2066
I0
aI0
aa(lp2067
I0
aI0
aa(lp2068
I13
aI0
aa(lp2069
I0
aI0
aa(lp2070
I20
aI0
aa(lp2071
I8
aI0
aa(lp2072
I13
aI0
aa(lp2073
I13
aI0
aa(lp2074
I0
aI0
aa(lp2075
I4
aI0
aa(lp2076
I0
aI0
aa(lp2077
I13
aI0
aa(lp2078
I0
aI0
aa(lp2079
I0
aI0
aa(lp2080
I23
aI0
aa(lp2081
I0
aI0
aa(lp2082
I23
aI0
aa(lp2083
I0
aI0
aa(lp2084
I23
aI0
aa(lp2085
I0
aI0
aa(lp2086
I23
aI0
aa(lp2087
I0
aI0
aa(lp2088
I23
aI0
aaa(lp2089
(lp2090
I0
aI0
aa(lp2091
I13
aI0
aa(lp2092
I3
aI0
aa(lp2093
I13
aI0
aa(lp2094
I8
aI0
aa(lp2095
I0
aI0
aa(lp2096
I16
aI0
aa(lp2097
I17
aI0
aa(lp2098
I0
aI0
aa(lp2099
I0
aI0
aa(lp2100
I0
aI0
aa(lp2101
I13
aI0
aa(lp2102
I0
aI0
aa(lp2103
I0
aI0
aa(lp2104
I0
aI0
aa(lp2105
I13
aI0
aa(lp2106
I13
aI0
aa(lp2107
I0
aI0
aa(lp2108
I0
aI0
aa(lp2109
I0
aI0
aa(lp2110
I13
aI0
aa(lp2111
I0
aI0
aa(lp2112
I0
aI0
aa(lp2113
I23
aI0
aa(lp2114
I0
aI0
aa(lp2115
I23
aI0
aa(lp2116
I0
aI0
aa(lp2117
I23
aI0
aa(lp2118
I0
aI0
aa(lp2119
I23
aI0
aa(lp2120
I0
aI0
aa(lp2121
I23
aI0
aaa(lp2122
(lp2123
I0
aI0
aa(lp2124
I0
aI0
aa(lp2125
I13
aI0
aa(lp2126
I0
aI0
aa(lp2127
I0
aI0
aa(lp2128
I2
aI0
aa(lp2129
I0
aI0
aa(lp2130
I0
aI0
aa(lp2131
I2
aI0
aa(lp2132
I0
aI0
aa(lp2133
I13
aI0
aa(lp2134
I13
aI0
aa(lp2135
I8
aI0
aa(lp2136
I13
aI0
aa(lp2137
I0
aI0
aa(lp2138
I13
aI0
aa(lp2139
I13
aI0
aa(lp2140
I0
aI0
aa(lp2141
I20
aI0
aa(lp2142
I0
aI0
aa(lp2143
I13
aI0
aa(lp2144
I0
aI0
aa(lp2145
I0
aI0
aa(lp2146
I23
aI0
aa(lp2147
I0
aI0
aa(lp2148
I23
aI0
aa(lp2149
I0
aI0
aa(lp2150
I23
aI0
aa(lp2151
I0
aI0
aa(lp2152
I23
aI0
aa(lp2153
I0
aI0
aa(lp2154
I23
aI0
aaa(lp2155
(lp2156
I20
aI0
aa(lp2157
I0
aI0
aa(lp2158
I0
aI0
aa(lp2159
I13
aI0
aa(lp2160
I0
aI0
aa(lp2161
I0
aI0
aa(lp2162
I0
aI0
aa(lp2163
I8
aI0
aa(lp2164
I0
aI0
aa(lp2165
I13
aI0
aa(lp2166
I0
aI0
aa(lp2167
I13
aI0
aa(lp2168
I0
aI0
aa(lp2169
I13
aI0
aa(lp2170
I0
aI0
aa(lp2171
I13
aI0
aa(lp2172
I13
aI0
aa(lp2173
I0
aI0
aa(lp2174
I4
aI0
aa(lp2175
I0
aI0
aa(lp2176
I13
aI0
aa(lp2177
I0
aI0
aa(lp2178
I0
aI0
aa(lp2179
I23
aI0
aa(lp2180
I0
aI0
aa(lp2181
I23
aI0
aa(lp2182
I0
aI0
aa(lp2183
I23
aI0
aa(lp2184
I8
aI0
aa(lp2185
I23
aI0
aa(lp2186
I0
aI0
aa(lp2187
I23
aI0
aaa(lp2188
(lp2189
I0
aI0
aa(lp2190
I5
aI0
aa(lp2191
I3
aI0
aa(lp2192
I0
aI0
aa(lp2193
I13
aI0
aa(lp2194
I8
aI0
aa(lp2195
I0
aI0
aa(lp2196
I0
aI0
aa(lp2197
I13
aI0
aa(lp2198
I8
aI0
aa(lp2199
I5
aI0
aa(lp2200
I13
aI0
aa(lp2201
I3
aI0
aa(lp2202
I13
aI0
aa(lp2203
I0
aI0
aa(lp2204
I13
aI0
aa(lp2205
I13
aI0
aa(lp2206
I13
aI0
aa(lp2207
I0
aI0
aa(lp2208
I13
aI0
aa(lp2209
I13
aI0
aa(lp2210
I2
aI0
aa(lp2211
I0
aI0
aa(lp2212
I23
aI0
aa(lp2213
I0
aI0
aa(lp2214
I23
aI0
aa(lp2215
I0
aI0
aa(lp2216
I23
aI0
aa(lp2217
I4
aI0
aa(lp2218
I23
aI0
aa(lp2219
I0
aI0
aa(lp2220
I23
aI0
aaa(lp2221
(lp2222
I0
aI0
aa(lp2223
I0
aI0
aa(lp2224
I0
aI0
aa(lp2225
I0
aI0
aa(lp2226
I0
aI0
aa(lp2227
I20
aI0
aa(lp2228
I0
aI0
aa(lp2229
I20
aI0
aa(lp2230
I8
aI0
aa(lp2231
I0
aI0
aa(lp2232
I0
aI0
aa(lp2233
I13
aI0
aa(lp2234
I13
aI0
aa(lp2235
I13
aI0
aa(lp2236
I0
aI0
aa(lp2237
I13
aI0
aa(lp2238
I13
aI0
aa(lp2239
I0
aI0
aa(lp2240
I0
aI0
aa(lp2241
I0
aI0
aa(lp2242
I13
aI0
aa(lp2243
I0
aI0
aa(lp2244
I0
aI0
aa(lp2245
I0
aI0
aa(lp2246
I0
aI0
aa(lp2247
I23
aI0
aa(lp2248
I0
aI0
aa(lp2249
I14
aI0
aa(lp2250
I14
aI0
aa(lp2251
I14
aI0
aa(lp2252
I8
aI0
aa(lp2253
I0
aI0
aaa(lp2254
(lp2255
I21
aI0
aa(lp2256
I13
aI0
aa(lp2257
I13
aI0
aa(lp2258
I13
aI0
aa(lp2259
I13
aI0
aa(lp2260
I13
aI0
aa(lp2261
I13
aI0
aa(lp2262
I13
aI0
aa(lp2263
I13
aI0
aa(lp2264
I13
aI0
aa(lp2265
I0
aI0
aa(lp2266
I13
aI0
aa(lp2267
I3
aI0
aa(lp2268
I0
aI0
aa(lp2269
I0
aI0
aa(lp2270
I0
aI0
aa(lp2271
I8
aI0
aa(lp2272
I0
aI0
aa(lp2273
I13
aI0
aa(lp2274
I0
aI0
aa(lp2275
I13
aI0
aa(lp2276
I13
aI0
aa(lp2277
I13
aI0
aa(lp2278
I13
aI0
aa(lp2279
I13
aI0
aa(lp2280
I13
aI0
aa(lp2281
I13
aI0
aa(lp2282
I13
aI0
aa(lp2283
I13
aI0
aa(lp2284
I13
aI0
aa(lp2285
I0
aI0
aa(lp2286
I13
aI0
aaa(lp2287
(lp2288
I21
aI0
aa(lp2289
I13
aI0
aa(lp2290
I13
aI0
aa(lp2291
I13
aI0
aa(lp2292
I13
aI0
aa(lp2293
I13
aI0
aa(lp2294
I13
aI0
aa(lp2295
I13
aI0
aa(lp2296
I13
aI0
aa(lp2297
I13
aI0
aa(lp2298
I0
aI0
aa(lp2299
I13
aI0
aa(lp2300
I3
aI0
aa(lp2301
I0
aI0
aa(lp2302
I0
aI0
aa(lp2303
I0
aI0
aa(lp2304
I8
aI0
aa(lp2305
I0
aI0
aa(lp2306
I13
aI0
aa(lp2307
I0
aI0
aa(lp2308
I13
aI0
aa(lp2309
I13
aI0
aa(lp2310
I13
aI0
aa(lp2311
I13
aI0
aa(lp2312
I13
aI0
aa(lp2313
I13
aI0
aa(lp2314
I13
aI0
aa(lp2315
I13
aI0
aa(lp2316
I13
aI0
aa(lp2317
I13
aI0
aa(lp2318
I8
aI0
aa(lp2319
I13
aI0
aaa(lp2320
(lp2321
I0
aI0
aa(lp2322
I0
aI0
aa(lp2323
I13
aI0
aa(lp2324
I0
aI0
aa(lp2325
I15
aI0
aa(lp2326
I0
aI0
aa(lp2327
I0
aI0
aa(lp2328
I0
aI0
aa(lp2329
I0
aI0
aa(lp2330
I0
aI0
aa(lp2331
I0
aI0
aa(lp2332
I13
aI0
aa(lp2333
I13
aI0
aa(lp2334
I13
aI0
aa(lp2335
I0
aI0
aa(lp2336
I13
aI0
aa(lp2337
I13
aI0
aa(lp2338
I0
aI0
aa(lp2339
I4
aI0
aa(lp2340
I0
aI0
aa(lp2341
I13
aI0
aa(lp2342
I0
aI0
aa(lp2343
I0
aI0
aa(lp2344
I0
aI0
aa(lp2345
I13
aI0
aa(lp2346
I11
a(I26
I23
tp2347
aa(lp2348
I9
aI0
aa(lp2349
I13
aI0
aa(lp2350
I0
aI0
aa(lp2351
I8
aI0
aa(lp2352
I0
aI0
aa(lp2353
I3
aI0
aaa(lp2354
(lp2355
I12
a(I17
I2
tp2356
aa(lp2357
I0
aI0
aa(lp2358
I0
aI0
aa(lp2359
I0
aI0
aa(lp2360
I13
aI0
aa(lp2361
I0
aI0
aa(lp2362
I13
aI0
aa(lp2363
I13
aI0
aa(lp2364
I13
aI0
aa(lp2365
I0
aI0
aa(lp2366
I2
aI0
aa(lp2367
I13
aI0
aa(lp2368
I3
aI0
aa(lp2369
I13
aI0
aa(lp2370
I0
aI0
aa(lp2371
I13
aI0
aa(lp2372
I13
aI0
aa(lp2373
I13
aI0
aa(lp2374
I0
aI0
aa(lp2375
I13
aI0
aa(lp2376
I13
aI0
aa(lp2377
I0
aI0
aa(lp2378
I13
aI0
aa(lp2379
I0
aI0
aa(lp2380
I13
aI0
aa(lp2381
I0
aI0
aa(lp2382
I0
aI0
aa(lp2383
I8
aI0
aa(lp2384
I8
aI0
aa(lp2385
I9
aI0
aa(lp2386
I2
aI0
aa(lp2387
I0
aI0
aaa(lp2388
(lp2389
I3
aI0
aa(lp2390
I0
aI0
aa(lp2391
I0
aI0
aa(lp2392
I0
aI0
aa(lp2393
I13
aI0
aa(lp2394
I0
aI0
aa(lp2395
I13
aI0
aa(lp2396
I3
aI0
aa(lp2397
I0
aI0
aa(lp2398
I0
aI0
aa(lp2399
I0
aI0
aa(lp2400
I13
aI0
aa(lp2401
I0
aI0
aa(lp2402
I13
aI0
aa(lp2403
I0
aI0
aa(lp2404
I13
aI0
aa(lp2405
I13
aI0
aa(lp2406
I0
aI0
aa(lp2407
I0
aI0
aa(lp2408
I0
aI0
aa(lp2409
I13
aI0
aa(lp2410
I0
aI0
aa(lp2411
I13
aI0
aa(lp2412
I0
aI0
aa(lp2413
I13
aI0
aa(lp2414
I9
aI0
aa(lp2415
I0
aI0
aa(lp2416
I9
aI0
aa(lp2417
I0
aI0
aa(lp2418
I0
aI0
aa(lp2419
I0
aI0
aa(lp2420
I0
aI0
aaa(lp2421
(lp2422
I0
aI0
aa(lp2423
I0
aI0
aa(lp2424
I0
aI0
aa(lp2425
I0
aI0
aa(lp2426
I15
aI0
aa(lp2427
I0
aI0
aa(lp2428
I13
aI0
aa(lp2429
I13
aI0
aa(lp2430
I13
aI0
aa(lp2431
I13
aI0
aa(lp2432
I13
aI0
aa(lp2433
I13
aI0
aa(lp2434
I8
aI0
aa(lp2435
I13
aI0
aa(lp2436
I0
aI0
aa(lp2437
I13
aI0
aa(lp2438
I13
aI0
aa(lp2439
I0
aI0
aa(lp2440
I20
aI0
aa(lp2441
I0
aI0
aa(lp2442
I13
aI0
aa(lp2443
I0
aI0
aa(lp2444
I13
aI0
aa(lp2445
I4
aI0
aa(lp2446
I13
aI0
aa(lp2447
I0
aI0
aa(lp2448
I0
aI0
aa(lp2449
I0
aI0
aa(lp2450
I0
aI0
aa(lp2451
I9
aI0
aa(lp2452
I0
aI0
aa(lp2453
I8
aI0
aaa(lp2454
(lp2455
I0
aI0
aa(lp2456
I0
aI0
aa(lp2457
I0
aI0
aa(lp2458
I2
aI0
aa(lp2459
I13
aI0
aa(lp2460
I0
aI0
aa(lp2461
I13
aI0
aa(lp2462
I0
aI0
aa(lp2463
I4
aI0
aa(lp2464
I8
aI0
aa(lp2465
I0
aI0
aa(lp2466
I13
aI0
aa(lp2467
I0
aI0
aa(lp2468
I0
aI0
aa(lp2469
I0
aI0
aa(lp2470
I13
aI0
aa(lp2471
I13
aI0
aa(lp2472
I0
aI0
aa(lp2473
I4
aI0
aa(lp2474
I0
aI0
aa(lp2475
I13
aI0
aa(lp2476
I0
aI0
aa(lp2477
I13
aI0
aa(lp2478
I0
aI0
aa(lp2479
I13
aI0
aa(lp2480
I0
aI0
aa(lp2481
I0
aI0
aa(lp2482
I8
aI0
aa(lp2483
I0
aI0
aa(lp2484
I0
aI0
aa(lp2485
I8
aI0
aa(lp2486
I0
aI0
aaa(lp2487
(lp2488
I0
aI0
aa(lp2489
I13
aI0
aa(lp2490
I0
aI0
aa(lp2491
I3
aI0
aa(lp2492
I13
aI0
aa(lp2493
I0
aI0
aa(lp2494
I8
aI0
aa(lp2495
I4
aI0
aa(lp2496
I0
aI0
aa(lp2497
I13
aI0
aa(lp2498
I0
aI0
aa(lp2499
I13
aI0
aa(lp2500
I8
aI0
aa(lp2501
I13
aI0
aa(lp2502
I0
aI0
aa(lp2503
I13
aI0
aa(lp2504
I13
aI0
aa(lp2505
I0
aI0
aa(lp2506
I0
aI0
aa(lp2507
I0
aI0
aa(lp2508
I13
aI0
aa(lp2509
I0
aI0
aa(lp2510
I13
aI0
aa(lp2511
I0
aI0
aa(lp2512
I13
aI0
aa(lp2513
I0
aI0
aa(lp2514
I8
aI0
aa(lp2515
I0
aI0
aa(lp2516
I8
aI0
aa(lp2517
I0
aI0
aa(lp2518
I0
aI0
aa(lp2519
I0
aI0
aaa(lp2520
(lp2521
I0
aI0
aa(lp2522
I13
aI0
aa(lp2523
I13
aI0
aa(lp2524
I13
aI0
aa(lp2525
I13
aI0
aa(lp2526
I13
aI0
aa(lp2527
I13
aI0
aa(lp2528
I13
aI0
aa(lp2529
I13
aI0
aa(lp2530
I13
aI0
aa(lp2531
I8
aI0
aa(lp2532
I13
aI0
aa(lp2533
I0
aI0
aa(lp2534
I13
aI0
aa(lp2535
I0
aI0
aa(lp2536
I13
aI0
aa(lp2537
I13
aI0
aa(lp2538
I21
aI0
aa(lp2539
I20
aI0
aa(lp2540
I0
aI0
aa(lp2541
I13
aI0
aa(lp2542
I0
aI0
aa(lp2543
I13
aI0
aa(lp2544
I0
aI0
aa(lp2545
I0
aI0
aa(lp2546
I8
aI0
aa(lp2547
I0
aI0
aa(lp2548
I0
aI0
aa(lp2549
I4
aI0
aa(lp2550
I8
aI0
aa(lp2551
I0
aI0
aa(lp2552
I9
aI0
aaa(lp2553
(lp2554
I8
aI0
aa(lp2555
I0
aI0
aa(lp2556
I0
aI0
aa(lp2557
I0
aI0
aa(lp2558
I0
aI0
aa(lp2559
I0
aI0
aa(lp2560
I0
aI0
aa(lp2561
I0
aI0
aa(lp2562
I4
aI0
aa(lp2563
I0
aI0
aa(lp2564
I0
aI0
aa(lp2565
I13
aI0
aa(lp2566
I3
aI0
aa(lp2567
I13
aI0
aa(lp2568
I0
aI0
aa(lp2569
I13
aI0
aa(lp2570
I13
aI0
aa(lp2571
I4
aI0
aa(lp2572
I21
aI0
aa(lp2573
I0
aI0
aa(lp2574
I13
aI0
aa(lp2575
I0
aI0
aa(lp2576
I13
aI0
aa(lp2577
I13
aI0
aa(lp2578
I13
aI0
aa(lp2579
I13
aI0
aa(lp2580
I13
aI0
aa(lp2581
I13
aI0
aa(lp2582
I13
aI0
aa(lp2583
I2
aI0
aa(lp2584
I13
aI0
aa(lp2585
I13
aI0
aaa(lp2586
(lp2587
I13
aI0
aa(lp2588
I13
aI0
aa(lp2589
I13
aI0
aa(lp2590
I13
aI0
aa(lp2591
I13
aI0
aa(lp2592
I13
aI0
aa(lp2593
I13
aI0
aa(lp2594
I13
aI0
aa(lp2595
I13
aI0
aa(lp2596
I13
aI0
aa(lp2597
I8
aI0
aa(lp2598
I13
aI0
aa(lp2599
I13
aI0
aa(lp2600
I13
aI0
aa(lp2601
I0
aI0
aa(lp2602
I13
aI0
aa(lp2603
I13
aI0
aa(lp2604
I13
aI0
aa(lp2605
I13
aI0
aa(lp2606
I0
aI0
aa(lp2607
I13
aI0
aa(lp2608
I4
aI0
aa(lp2609
I8
aI0
aa(lp2610
I14
aI0
aa(lp2611
I14
aI0
aa(lp2612
I14
aI0
aa(lp2613
I14
aI0
aa(lp2614
I14
aI0
aa(lp2615
I14
aI0
aa(lp2616
I14
aI0
aa(lp2617
I14
aI0
aa(lp2618
I14
aI0
aaa(lp2619
(lp2620
I8
aI0
aa(lp2621
I4
aI0
aa(lp2622
I0
aI0
aa(lp2623
I0
aI0
aa(lp2624
I0
aI0
aa(lp2625
I0
aI0
aa(lp2626
I0
aI0
aa(lp2627
I0
aI0
aa(lp2628
I0
aI0
aa(lp2629
I0
aI0
aa(lp2630
I0
aI0
aa(lp2631
I13
aI0
aa(lp2632
I0
aI0
aa(lp2633
I5
aI0
aa(lp2634
I8
aI0
aa(lp2635
I13
aI0
aa(lp2636
I13
aI0
aa(lp2637
I0
aI0
aa(lp2638
I0
aI0
aa(lp2639
I0
aI0
aa(lp2640
I13
aI0
aa(lp2641
I8
aI0
aa(lp2642
I0
aI0
aa(lp2643
I0
aI0
aa(lp2644
I13
aI0
aa(lp2645
I0
aI0
aa(lp2646
I13
aI0
aa(lp2647
I0
aI0
aa(lp2648
I13
aI0
aa(lp2649
I0
aI0
aa(lp2650
I13
aI0
aa(lp2651
I0
aI0
aaa(lp2652
(lp2653
I0
aI0
aa(lp2654
I12
a(I29
I1
tp2655
aa(lp2656
I12
a(I29
I2
tp2657
aa(lp2658
I12
a(I29
I3
tp2659
aa(lp2660
I12
a(I29
I4
tp2661
aa(lp2662
I12
a(I29
I5
tp2663
aa(lp2664
I12
a(I29
I6
tp2665
aa(lp2666
I12
a(I29
I7
tp2667
aa(lp2668
I12
a(I29
I8
tp2669
aa(lp2670
I12
a(I29
I9
tp2671
aa(lp2672
I12
a(I29
I10
tp2673
aa(lp2674
I13
aI0
aa(lp2675
I5
aI0
aa(lp2676
I8
aI0
aa(lp2677
I0
aI0
aa(lp2678
I13
aI0
aa(lp2679
I13
aI0
aa(lp2680
I0
aI0
aa(lp2681
I22
aI0
aa(lp2682
I0
aI0
aa(lp2683
I13
aI0
aa(lp2684
I0
aI0
aa(lp2685
I0
aI0
aa(lp2686
I0
aI0
aa(lp2687
I0
aI0
aa(lp2688
I0
aI0
aa(lp2689
I0
aI0
aa(lp2690
I0
aI0
aa(lp2691
I0
aI0
aa(lp2692
I0
aI0
aa(lp2693
I0
aI0
aa(lp2694
I0
aI0
aaa(lp2695
(lp2696
I0
aI0
aa(lp2697
I16
aI0
aa(lp2698
I16
aI0
aa(lp2699
I16
aI0
aa(lp2700
I16
aI0
aa(lp2701
I16
aI0
aa(lp2702
I16
aI0
aa(lp2703
I16
aI0
aa(lp2704
I16
aI0
aa(lp2705
I16
aI0
aa(lp2706
I16
aI0
aa(lp2707
I13
aI0
aa(lp2708
I8
aI0
aa(lp2709
I0
aI0
aa(lp2710
I0
aI0
aa(lp2711
I13
aI0
aa(lp2712
I13
aI0
aa(lp2713
I0
aI0
aa(lp2714
I4
aI0
aa(lp2715
I0
aI0
aa(lp2716
I13
aI0
aa(lp2717
I0
aI0
aa(lp2718
I0
aI0
aa(lp2719
I12
a(I29
I23
tp2720
aa(lp2721
I0
aI0
aa(lp2722
I12
a(I29
I25
tp2723
aa(lp2724
I0
aI0
aa(lp2725
I12
a(I29
I27
tp2726
aa(lp2727
I0
aI0
aa(lp2728
I12
a(I29
I29
tp2729
aa(lp2730
I0
aI0
aa(lp2731
I12
a(I29
I31
tp2732
aaa(lp2733
(lp2734
I0
aI0
aa(lp2735
I13
aI0
aa(lp2736
I13
aI0
aa(lp2737
I13
aI0
aa(lp2738
I13
aI0
aa(lp2739
I13
aI0
aa(lp2740
I13
aI0
aa(lp2741
I13
aI0
aa(lp2742
I13
aI0
aa(lp2743
I13
aI0
aa(lp2744
I13
aI0
aa(lp2745
I13
aI0
aa(lp2746
I13
aI0
aa(lp2747
I13
aI0
aa(lp2748
I9
aI0
aa(lp2749
I13
aI0
aa(lp2750
I13
aI0
aa(lp2751
I13
aI0
aa(lp2752
I0
aI0
aa(lp2753
I13
aI0
aa(lp2754
I13
aI0
aa(lp2755
I0
aI0
aa(lp2756
I0
aI0
aa(lp2757
I13
aI0
aa(lp2758
I0
aI0
aa(lp2759
I13
aI0
aa(lp2760
I0
aI0
aa(lp2761
I13
aI0
aa(lp2762
I0
aI0
aa(lp2763
I13
aI0
aa(lp2764
I0
aI0
aa(lp2765
I13
aI0
aaa(lp2766
(lp2767
I0
aI0
aa(lp2768
I0
aI0
aa(lp2769
I0
aI0
aa(lp2770
I0
aI0
aa(lp2771
I0
aI0
aa(lp2772
I0
aI0
aa(lp2773
I25
aI0
aa(lp2774
I0
aI0
aa(lp2775
I21
aI0
aa(lp2776
I0
aI0
aa(lp2777
I0
aI0
aa(lp2778
I20
aI0
aa(lp2779
I0
aI0
aa(lp2780
I8
aI0
aa(lp2781
I9
aI0
aa(lp2782
I13
aI0
aa(lp2783
I13
aI0
aa(lp2784
I0
aI0
aa(lp2785
I0
aI0
aa(lp2786
I0
aI0
aa(lp2787
I8
aI0
aa(lp2788
I0
aI0
aa(lp2789
I0
aI0
aa(lp2790
I18
aI0
aa(lp2791
I0
aI0
aa(lp2792
I18
aI0
aa(lp2793
I0
aI0
aa(lp2794
I18
aI0
aa(lp2795
I0
aI0
aa(lp2796
I18
aI0
aa(lp2797
I0
aI0
aa(lp2798
I18
aI0
aaa(lp2799
(lp2800
I0
aI0
aa(lp2801
I0
aI0
aa(lp2802
I0
aI0
aa(lp2803
I25
aI0
aa(lp2804
I0
aI0
aa(lp2805
I0
aI0
aa(lp2806
I0
aI0
aa(lp2807
I0
aI0
aa(lp2808
I25
aI0
aa(lp2809
I0
aI0
aa(lp2810
I0
aI0
aa(lp2811
I13
aI0
aa(lp2812
I0
aI0
aa(lp2813
I8
aI0
aa(lp2814
I9
aI0
aa(lp2815
I13
aI0
aa(lp2816
I13
aI0
aa(lp2817
I12
a(I29
I19
tp2818
aa(lp2819
I0
aI0
aa(lp2820
I0
aI0
aa(lp2821
I13
aI0
aa(lp2822
I0
aI0
aa(lp2823
I0
aI0
aa(lp2824
I0
aI0
aa(lp2825
I0
aI0
aa(lp2826
I0
aI0
aa(lp2827
I0
aI0
aa(lp2828
I0
aI0
aa(lp2829
I0
aI0
aa(lp2830
I0
aI0
aa(lp2831
I0
aI0
aa(lp2832
I0
aI0
aaaasS'def_file'
p2833
S'CTdefs.py'
p2834
sS'level_size'
p2835
(lp2836
(lp2837
I16
aI12
aa(lp2838
I16
aI12
aa(lp2839
I48
aI12
aa(lp2840
I16
aI40
aa(lp2841
I32
aI32
aasS'dave_pos'
p2842
(lp2843
(I0
I11
tp2844
a(I0
I0
tp2845
a(I0
I0
tp2846
a(I8
I39
tp2847
a(I0
I0
tp2848
asS'minimum_score'
p2849
(lp2850
I7
aI5
aI15
aI33
aI36
asb.