(i__main__
Game_Data
p0
(dp1
S'level_map'
p2
(lp3
(lp4
(lp5
(lp6
I8
aI0
aa(lp7
I22
aI0
aa(lp8
I0
aI0
aa(lp9
I0
aI0
aa(lp10
I22
aI0
aa(lp11
I23
aI0
aa(lp12
I25
aI0
aa(lp13
I8
aI0
aa(lp14
I14
aI0
aa(lp15
I8
aI0
aa(lp16
I8
aI0
aa(lp17
I8
aI0
aaa(lp18
(lp19
I0
aI0
aa(lp20
I0
aI0
aa(lp21
I3
aI0
aa(lp22
I25
aI0
aa(lp23
I0
aI0
aa(lp24
I23
aI0
aa(lp25
I8
aI0
aa(lp26
I8
aI0
aa(lp27
I8
aI0
aa(lp28
I8
aI0
aa(lp29
I14
aI0
aa(lp30
I8
aI0
aaa(lp31
(lp32
I22
aI0
aa(lp33
I8
aI0
aa(lp34
I22
aI0
aa(lp35
I0
aI0
aa(lp36
I0
aI0
aa(lp37
I23
aI0
aa(lp38
I8
aI0
aa(lp39
I14
aI0
aa(lp40
I8
aI0
aa(lp41
I8
aI0
aa(lp42
I8
aI0
aa(lp43
I4
aI0
aaa(lp44
(lp45
I8
aI0
aa(lp46
I0
aI0
aa(lp47
I3
aI0
aa(lp48
I0
aI0
aa(lp49
I3
aI0
aa(lp50
I23
aI0
aa(lp51
I8
aI0
aa(lp52
I8
aI0
aa(lp53
I14
aI0
aa(lp54
I8
aI0
aa(lp55
I0
aI0
aa(lp56
I0
aI0
aaa(lp57
(lp58
I23
aI0
aa(lp59
I1
aI0
aa(lp60
I24
aI0
aa(lp61
I6
aI0
aa(lp62
I23
aI0
aa(lp63
I3
aI0
aa(lp64
I24
aI0
aa(lp65
I13
aI0
aa(lp66
I23
aI0
aa(lp67
I1
aI0
aa(lp68
I1
aI0
aa(lp69
I24
aI0
aaa(lp70
(lp71
I0
aI0
aa(lp72
I8
aI0
aa(lp73
I0
aI0
aa(lp74
I0
aI0
aa(lp75
I23
aI0
aa(lp76
I0
aI0
aa(lp77
I1
aI0
aa(lp78
I0
aI0
aa(lp79
I0
aI0
aa(lp80
I0
aI0
aa(lp81
I0
aI0
aa(lp82
I12
a(I4
I7
tp83
aaa(lp84
(lp85
I0
aI0
aa(lp86
I8
aI0
aa(lp87
I0
aI0
aa(lp88
I22
aI0
aa(lp89
I23
aI0
aa(lp90
I22
aI0
aa(lp91
I1
aI0
aa(lp92
I1
aI0
aa(lp93
I1
aI0
aa(lp94
I1
aI0
aa(lp95
I0
aI0
aa(lp96
I0
aI0
aaa(lp97
(lp98
I4
aI0
aa(lp99
I2
aI0
aa(lp100
I0
aI0
aa(lp101
I0
aI0
aa(lp102
I2
aI0
aa(lp103
I2
aI0
aa(lp104
I2
aI0
aa(lp105
I0
aI0
aa(lp106
I0
aI0
aa(lp107
I0
aI0
aa(lp108
I0
aI0
aa(lp109
I5
aI0
aaa(lp110
(lp111
I0
aI0
aa(lp112
I8
aI0
aa(lp113
I0
aI0
aa(lp114
I13
aI0
aa(lp115
I13
aI0
aa(lp116
I0
aI0
aa(lp117
I13
aI0
aa(lp118
I0
aI0
aa(lp119
I20
aI0
aa(lp120
I0
aI0
aa(lp121
I0
aI0
aa(lp122
I0
aI0
aaa(lp123
(lp124
I0
aI0
aa(lp125
I8
aI0
aa(lp126
I0
aI0
aa(lp127
I0
aI0
aa(lp128
I23
aI0
aa(lp129
I0
aI0
aa(lp130
I24
aI0
aa(lp131
I0
aI0
aa(lp132
I23
aI0
aa(lp133
I1
aI0
aa(lp134
I24
aI0
aa(lp135
I21
aI0
aaa(lp136
(lp137
I0
aI0
aa(lp138
I8
aI0
aa(lp139
I0
aI0
aa(lp140
I0
aI0
aa(lp141
I23
aI0
aa(lp142
I9
aI0
aa(lp143
I1
aI0
aa(lp144
I0
aI0
aa(lp145
I0
aI0
aa(lp146
I25
aI0
aa(lp147
I24
aI0
aa(lp148
I7
a(I12
I0
tp149
aaa(lp150
(lp151
I23
aI0
aa(lp152
I18
aI0
aa(lp153
I18
aI0
aa(lp154
I0
aI0
aa(lp155
I23
aI0
aa(lp156
I1
aI0
aa(lp157
I24
aI0
aa(lp158
I5
aI0
aa(lp159
I23
aI0
aa(lp160
I1
aI0
aa(lp161
I1
aI0
aa(lp162
I25
aI0
aaa(lp163
(lp164
I0
aI0
aa(lp165
I20
aI0
aa(lp166
I0
aI0
aa(lp167
I21
aI0
aa(lp168
I20
aI0
aa(lp169
I23
aI0
aa(lp170
I22
aI0
aa(lp171
I22
aI0
aa(lp172
I0
aI0
aa(lp173
I22
aI0
aa(lp174
I22
aI0
aa(lp175
I0
aI0
aaa(lp176
(lp177
I20
aI0
aa(lp178
I21
aI0
aa(lp179
I0
aI0
aa(lp180
I20
aI0
aa(lp181
I21
aI0
aa(lp182
I2
aI0
aa(lp183
I0
aI0
aa(lp184
I22
aI0
aa(lp185
I22
aI0
aa(lp186
I25
aI0
aa(lp187
I22
aI0
aa(lp188
I22
aI0
aaa(lp189
(lp190
I0
aI0
aa(lp191
I0
aI0
aa(lp192
I20
aI0
aa(lp193
I21
aI0
aa(lp194
I21
aI0
aa(lp195
I2
aI0
aa(lp196
I22
aI0
aa(lp197
I22
aI0
aa(lp198
I22
aI0
aa(lp199
I22
aI0
aa(lp200
I22
aI0
aa(lp201
I22
aI0
aaa(lp202
(lp203
I21
aI0
aa(lp204
I20
aI0
aa(lp205
I21
aI0
aa(lp206
I20
aI0
aa(lp207
I21
aI0
aa(lp208
I2
aI0
aa(lp209
I0
aI0
aa(lp210
I22
aI0
aa(lp211
I0
aI0
aa(lp212
I22
aI0
aa(lp213
I0
aI0
aa(lp214
I9
aI0
aaaa(lp215
(lp216
(lp217
I6
aI0
aa(lp218
I25
aI0
aa(lp219
I0
aI0
aa(lp220
I3
aI0
aa(lp221
I23
aI0
aa(lp222
I13
aI0
aa(lp223
I2
aI0
aa(lp224
I16
aI0
aa(lp225
I0
aI0
aa(lp226
I0
aI0
aa(lp227
I2
aI0
aa(lp228
I0
aI0
aaa(lp229
(lp230
I21
aI0
aa(lp231
I0
aI0
aa(lp232
I0
aI0
aa(lp233
I0
aI0
aa(lp234
I22
aI0
aa(lp235
I4
aI0
aa(lp236
I2
aI0
aa(lp237
I0
aI0
aa(lp238
I2
aI0
aa(lp239
I5
aI0
aa(lp240
I2
aI0
aa(lp241
I0
aI0
aaa(lp242
(lp243
I24
aI0
aa(lp244
I0
aI0
aa(lp245
I2
aI0
aa(lp246
I14
aI0
aa(lp247
I23
aI0
aa(lp248
I0
aI0
aa(lp249
I2
aI0
aa(lp250
I0
aI0
aa(lp251
I2
aI0
aa(lp252
I0
aI0
aa(lp253
I2
aI0
aa(lp254
I14
aI0
aaa(lp255
(lp256
I20
aI0
aa(lp257
I0
aI0
aa(lp258
I0
aI0
aa(lp259
I0
aI0
aa(lp260
I23
aI0
aa(lp261
I0
aI0
aa(lp262
I2
aI0
aa(lp263
I0
aI0
aa(lp264
I2
aI0
aa(lp265
I0
aI0
aa(lp266
I2
aI0
aa(lp267
I14
aI0
aaa(lp268
(lp269
I20
aI0
aa(lp270
I3
aI0
aa(lp271
I1
aI0
aa(lp272
I0
aI0
aa(lp273
I12
a(I0
I5
tp274
aa(lp275
I0
aI0
aa(lp276
I2
aI0
aa(lp277
I0
aI0
aa(lp278
I2
aI0
aa(lp279
I0
aI0
aa(lp280
I2
aI0
aa(lp281
I14
aI0
aaa(lp282
(lp283
I20
aI0
aa(lp284
I14
aI0
aa(lp285
I24
aI0
aa(lp286
I22
aI0
aa(lp287
I23
aI0
aa(lp288
I0
aI0
aa(lp289
I2
aI0
aa(lp290
I0
aI0
aa(lp291
I2
aI0
aa(lp292
I0
aI0
aa(lp293
I2
aI0
aa(lp294
I0
aI0
aaa(lp295
(lp296
I20
aI0
aa(lp297
I0
aI0
aa(lp298
I0
aI0
aa(lp299
I0
aI0
aa(lp300
I23
aI0
aa(lp301
I0
aI0
aa(lp302
I2
aI0
aa(lp303
I0
aI0
aa(lp304
I2
aI0
aa(lp305
I0
aI0
aa(lp306
I2
aI0
aa(lp307
I0
aI0
aaa(lp308
(lp309
I20
aI0
aa(lp310
I0
aI0
aa(lp311
I0
aI0
aa(lp312
I0
aI0
aa(lp313
I23
aI0
aa(lp314
I0
aI0
aa(lp315
I0
aI0
aa(lp316
I0
aI0
aa(lp317
I2
aI0
aa(lp318
I0
aI0
aa(lp319
I0
aI0
aa(lp320
I10
aI0
aaa(lp321
(lp322
I20
aI0
aa(lp323
I25
aI0
aa(lp324
I0
aI0
aa(lp325
I25
aI0
aa(lp326
I23
aI0
aa(lp327
I1
aI0
aa(lp328
I1
aI0
aa(lp329
I1
aI0
aa(lp330
I1
aI0
aa(lp331
I1
aI0
aa(lp332
I1
aI0
aa(lp333
I24
aI0
aaa(lp334
(lp335
I20
aI0
aa(lp336
I0
aI0
aa(lp337
I0
aI0
aa(lp338
I0
aI0
aa(lp339
I23
aI0
aa(lp340
I21
aI0
aa(lp341
I0
aI0
aa(lp342
I0
aI0
aa(lp343
I21
aI0
aa(lp344
I0
aI0
aa(lp345
I0
aI0
aa(lp346
I0
aI0
aaa(lp347
(lp348
I20
aI0
aa(lp349
I21
aI0
aa(lp350
I0
aI0
aa(lp351
I20
aI0
aa(lp352
I21
aI0
aa(lp353
I3
aI0
aa(lp354
I0
aI0
aa(lp355
I0
aI0
aa(lp356
I0
aI0
aa(lp357
I0
aI0
aa(lp358
I21
aI0
aa(lp359
I0
aI0
aaa(lp360
(lp361
I18
aI0
aa(lp362
I5
aI0
aa(lp363
I23
aI0
aa(lp364
I1
aI0
aa(lp365
I24
aI0
aa(lp366
I0
aI0
aa(lp367
I0
aI0
aa(lp368
I21
aI0
aa(lp369
I0
aI0
aa(lp370
I0
aI0
aa(lp371
I0
aI0
aa(lp372
I0
aI0
aaa(lp373
(lp374
I4
aI0
aa(lp375
I0
aI0
aa(lp376
I0
aI0
aa(lp377
I4
aI0
aa(lp378
I23
aI0
aa(lp379
I21
aI0
aa(lp380
I0
aI0
aa(lp381
I0
aI0
aa(lp382
I3
aI0
aa(lp383
I21
aI0
aa(lp384
I0
aI0
aa(lp385
I21
aI0
aaa(lp386
(lp387
I0
aI0
aa(lp388
I22
aI0
aa(lp389
I0
aI0
aa(lp390
I0
aI0
aa(lp391
I23
aI0
aa(lp392
I0
aI0
aa(lp393
I0
aI0
aa(lp394
I0
aI0
aa(lp395
I0
aI0
aa(lp396
I0
aI0
aa(lp397
I22
aI0
aa(lp398
I0
aI0
aaa(lp399
(lp400
I0
aI0
aa(lp401
I20
aI0
aa(lp402
I0
aI0
aa(lp403
I0
aI0
aa(lp404
I23
aI0
aa(lp405
I0
aI0
aa(lp406
I21
aI0
aa(lp407
I3
aI0
aa(lp408
I21
aI0
aa(lp409
I22
aI0
aa(lp410
I20
aI0
aa(lp411
I22
aI0
aaa(lp412
(lp413
I4
aI0
aa(lp414
I0
aI0
aa(lp415
I0
aI0
aa(lp416
I0
aI0
aa(lp417
I23
aI0
aa(lp418
I18
aI0
aa(lp419
I0
aI0
aa(lp420
I0
aI0
aa(lp421
I0
aI0
aa(lp422
I21
aI0
aa(lp423
I22
aI0
aa(lp424
I22
aI0
aaaa(lp425
(lp426
(lp427
I0
aI0
aa(lp428
I13
aI0
aa(lp429
I13
aI0
aa(lp430
I0
aI0
aa(lp431
I0
aI0
aa(lp432
I0
aI0
aa(lp433
I11
a(I1
I6
tp434
aa(lp435
I0
aI0
aa(lp436
I11
a(I2
I7
tp437
aa(lp438
I0
aI0
aa(lp439
I13
aI0
aa(lp440
I7
a(I0
I9
tp441
aaa(lp442
(lp443
I0
aI0
aa(lp444
I0
aI0
aa(lp445
I13
aI0
aa(lp446
I0
aI0
aa(lp447
I12
a(I2
I4
tp448
aa(lp449
I0
aI0
aa(lp450
I0
aI0
aa(lp451
I0
aI0
aa(lp452
I0
aI0
aa(lp453
I0
aI0
aa(lp454
I13
aI0
aa(lp455
I3
aI0
aaa(lp456
(lp457
I13
aI0
aa(lp458
I0
aI0
aa(lp459
I13
aI0
aa(lp460
I0
aI0
aa(lp461
I0
aI0
aa(lp462
I8
aI0
aa(lp463
I11
a(I0
I7
tp464
aa(lp465
I0
aI0
aa(lp466
I12
a(I2
I10
tp467
aa(lp468
I0
aI0
aa(lp469
I0
aI0
aa(lp470
I3
aI0
aaa(lp471
(lp472
I4
aI0
aa(lp473
I4
aI0
aa(lp474
I13
aI0
aa(lp475
I0
aI0
aa(lp476
I12
a(I4
I4
tp477
aa(lp478
I0
aI0
aa(lp479
I0
aI0
aa(lp480
I0
aI0
aa(lp481
I0
aI0
aa(lp482
I0
aI0
aa(lp483
I13
aI0
aa(lp484
I3
aI0
aaa(lp485
(lp486
I8
aI0
aa(lp487
I13
aI0
aa(lp488
I13
aI0
aa(lp489
I0
aI0
aa(lp490
I0
aI0
aa(lp491
I0
aI0
aa(lp492
I12
a(I3
I6
tp493
aa(lp494
I0
aI0
aa(lp495
I11
a(I3
I9
tp496
aa(lp497
I13
aI0
aa(lp498
I22
aI0
aa(lp499
I13
aI0
aaa(lp500
(lp501
I0
aI0
aa(lp502
I0
aI0
aa(lp503
I3
aI0
aa(lp504
I0
aI0
aa(lp505
I8
aI0
aa(lp506
I13
aI0
aa(lp507
I13
aI0
aa(lp508
I13
aI0
aa(lp509
I13
aI0
aa(lp510
I22
aI0
aa(lp511
I21
aI0
aa(lp512
I22
aI0
aaa(lp513
(lp514
I21
aI0
aa(lp515
I13
aI0
aa(lp516
I13
aI0
aa(lp517
I13
aI0
aa(lp518
I8
aI0
aa(lp519
I0
aI0
aa(lp520
I0
aI0
aa(lp521
I0
aI0
aa(lp522
I0
aI0
aa(lp523
I13
aI0
aa(lp524
I20
aI0
aa(lp525
I0
aI0
aaa(lp526
(lp527
I0
aI0
aa(lp528
I13
aI0
aa(lp529
I0
aI0
aa(lp530
I0
aI0
aa(lp531
I13
aI0
aa(lp532
I13
aI0
aa(lp533
I2
aI0
aa(lp534
I13
aI0
aa(lp535
I0
aI0
aa(lp536
I0
aI0
aa(lp537
I0
aI0
aa(lp538
I22
aI0
aaa(lp539
(lp540
I0
aI0
aa(lp541
I0
aI0
aa(lp542
I0
aI0
aa(lp543
I0
aI0
aa(lp544
I21
aI0
aa(lp545
I13
aI0
aa(lp546
I0
aI0
aa(lp547
I0
aI0
aa(lp548
I0
aI0
aa(lp549
I13
aI0
aa(lp550
I5
aI0
aa(lp551
I8
aI0
aaa(lp552
(lp553
I20
aI0
aa(lp554
I5
aI0
aa(lp555
I11
a(I9
I4
tp556
aa(lp557
I2
aI0
aa(lp558
I13
aI0
aa(lp559
I0
aI0
aa(lp560
I0
aI0
aa(lp561
I0
aI0
aa(lp562
I13
aI0
aa(lp563
I5
aI0
aa(lp564
I5
aI0
aa(lp565
I22
aI0
aaa(lp566
(lp567
I0
aI0
aa(lp568
I0
aI0
aa(lp569
I0
aI0
aa(lp570
I0
aI0
aa(lp571
I21
aI0
aa(lp572
I13
aI0
aa(lp573
I0
aI0
aa(lp574
I13
aI0
aa(lp575
I5
aI0
aa(lp576
I5
aI0
aa(lp577
I5
aI0
aa(lp578
I8
aI0
aaa(lp579
(lp580
I0
aI0
aa(lp581
I13
aI0
aa(lp582
I0
aI0
aa(lp583
I0
aI0
aa(lp584
I13
aI0
aa(lp585
I0
aI0
aa(lp586
I2
aI0
aa(lp587
I13
aI0
aa(lp588
I13
aI0
aa(lp589
I13
aI0
aa(lp590
I13
aI0
aa(lp591
I13
aI0
aaa(lp592
(lp593
I13
aI0
aa(lp594
I13
aI0
aa(lp595
I13
aI0
aa(lp596
I13
aI0
aa(lp597
I0
aI0
aa(lp598
I0
aI0
aa(lp599
I0
aI0
aa(lp600
I0
aI0
aa(lp601
I0
aI0
aa(lp602
I0
aI0
aa(lp603
I0
aI0
aa(lp604
I15
aI0
aaa(lp605
(lp606
I7
a(I11
I0
tp607
aa(lp608
I0
aI0
aa(lp609
I0
aI0
aa(lp610
I0
aI0
aa(lp611
I0
aI0
aa(lp612
I0
aI0
aa(lp613
I0
aI0
aa(lp614
I0
aI0
aa(lp615
I0
aI0
aa(lp616
I0
aI0
aa(lp617
I0
aI0
aa(lp618
I0
aI0
aaa(lp619
(lp620
I23
aI0
aa(lp621
I1
aI0
aa(lp622
I1
aI0
aa(lp623
I1
aI0
aa(lp624
I1
aI0
aa(lp625
I24
aI0
aa(lp626
I25
aI0
aa(lp627
I25
aI0
aa(lp628
I23
aI0
aa(lp629
I1
aI0
aa(lp630
I24
aI0
aa(lp631
I0
aI0
aaa(lp632
(lp633
I0
aI0
aa(lp634
I5
aI0
aa(lp635
I5
aI0
aa(lp636
I5
aI0
aa(lp637
I5
aI0
aa(lp638
I5
aI0
aa(lp639
I5
aI0
aa(lp640
I5
aI0
aa(lp641
I5
aI0
aa(lp642
I5
aI0
aa(lp643
I5
aI0
aa(lp644
I0
aI0
aaa(lp645
(lp646
I0
aI0
aa(lp647
I5
aI0
aa(lp648
I5
aI0
aa(lp649
I5
aI0
aa(lp650
I5
aI0
aa(lp651
I5
aI0
aa(lp652
I5
aI0
aa(lp653
I5
aI0
aa(lp654
I5
aI0
aa(lp655
I5
aI0
aa(lp656
I5
aI0
aa(lp657
I0
aI0
aaa(lp658
(lp659
I23
aI0
aa(lp660
I1
aI0
aa(lp661
I1
aI0
aa(lp662
I25
aI0
aa(lp663
I23
aI0
aa(lp664
I1
aI0
aa(lp665
I1
aI0
aa(lp666
I24
aI0
aa(lp667
I25
aI0
aa(lp668
I1
aI0
aa(lp669
I24
aI0
aa(lp670
I0
aI0
aaa(lp671
(lp672
I7
a(I20
I11
tp673
aa(lp674
I0
aI0
aa(lp675
I0
aI0
aa(lp676
I0
aI0
aa(lp677
I0
aI0
aa(lp678
I0
aI0
aa(lp679
I0
aI0
aa(lp680
I0
aI0
aa(lp681
I0
aI0
aa(lp682
I0
aI0
aa(lp683
I0
aI0
aa(lp684
I0
aI0
aaa(lp685
(lp686
I0
aI0
aa(lp687
I0
aI0
aa(lp688
I0
aI0
aa(lp689
I0
aI0
aa(lp690
I0
aI0
aa(lp691
I0
aI0
aa(lp692
I0
aI0
aa(lp693
I0
aI0
aa(lp694
I0
aI0
aa(lp695
I0
aI0
aa(lp696
I0
aI0
aa(lp697
I15
aI0
aaa(lp698
(lp699
I0
aI0
aa(lp700
I0
aI0
aa(lp701
I0
aI0
aa(lp702
I0
aI0
aa(lp703
I0
aI0
aa(lp704
I0
aI0
aa(lp705
I0
aI0
aa(lp706
I0
aI0
aa(lp707
I0
aI0
aa(lp708
I5
aI0
aa(lp709
I22
aI0
aa(lp710
I0
aI0
aaa(lp711
(lp712
I17
aI0
aa(lp713
I0
aI0
aa(lp714
I0
aI0
aa(lp715
I0
aI0
aa(lp716
I0
aI0
aa(lp717
I25
aI0
aa(lp718
I0
aI0
aa(lp719
I23
aI0
aa(lp720
I23
aI0
aa(lp721
I24
aI0
aa(lp722
I23
aI0
aa(lp723
I24
aI0
aaa(lp724
(lp725
I20
aI0
aa(lp726
I20
aI0
aa(lp727
I20
aI0
aa(lp728
I0
aI0
aa(lp729
I0
aI0
aa(lp730
I8
aI0
aa(lp731
I0
aI0
aa(lp732
I8
aI0
aa(lp733
I13
aI0
aa(lp734
I15
aI0
aa(lp735
I22
aI0
aa(lp736
I3
aI0
aaa(lp737
(lp738
I20
aI0
aa(lp739
I20
aI0
aa(lp740
I0
aI0
aa(lp741
I8
aI0
aa(lp742
I12
a(I24
I5
tp743
aa(lp744
I12
a(I22
I8
tp745
aa(lp746
I8
aI0
aa(lp747
I0
aI0
aa(lp748
I0
aI0
aa(lp749
I8
aI0
aa(lp750
I3
aI0
aa(lp751
I8
aI0
aaa(lp752
(lp753
I0
aI0
aa(lp754
I14
aI0
aa(lp755
I14
aI0
aa(lp756
I8
aI0
aa(lp757
I0
aI0
aa(lp758
I0
aI0
aa(lp759
I0
aI0
aa(lp760
I0
aI0
aa(lp761
I0
aI0
aa(lp762
I8
aI0
aa(lp763
I22
aI0
aa(lp764
I20
aI0
aaa(lp765
(lp766
I0
aI0
aa(lp767
I0
aI0
aa(lp768
I8
aI0
aa(lp769
I8
aI0
aa(lp770
I0
aI0
aa(lp771
I12
a(I25
I4
tp772
aa(lp773
I0
aI0
aa(lp774
I0
aI0
aa(lp775
I0
aI0
aa(lp776
I0
aI0
aa(lp777
I20
aI0
aa(lp778
I20
aI0
aaa(lp779
(lp780
I16
aI0
aa(lp781
I20
aI0
aa(lp782
I21
aI0
aa(lp783
I2
aI0
aa(lp784
I0
aI0
aa(lp785
I12
a(I26
I4
tp786
aa(lp787
I0
aI0
aa(lp788
I0
aI0
aa(lp789
I0
aI0
aa(lp790
I21
aI0
aa(lp791
I23
aI0
aa(lp792
I24
aI0
aaa(lp793
(lp794
I0
aI0
aa(lp795
I0
aI0
aa(lp796
I0
aI0
aa(lp797
I0
aI0
aa(lp798
I0
aI0
aa(lp799
I12
a(I27
I4
tp800
aa(lp801
I0
aI0
aa(lp802
I14
aI0
aa(lp803
I22
aI0
aa(lp804
I0
aI0
aa(lp805
I3
aI0
aa(lp806
I23
aI0
aaa(lp807
(lp808
I0
aI0
aa(lp809
I20
aI0
aa(lp810
I21
aI0
aa(lp811
I2
aI0
aa(lp812
I0
aI0
aa(lp813
I12
a(I28
I4
tp814
aa(lp815
I14
aI0
aa(lp816
I14
aI0
aa(lp817
I22
aI0
aa(lp818
I0
aI0
aa(lp819
I0
aI0
aa(lp820
I3
aI0
aaa(lp821
(lp822
I0
aI0
aa(lp823
I0
aI0
aa(lp824
I0
aI0
aa(lp825
I0
aI0
aa(lp826
I0
aI0
aa(lp827
I12
a(I29
I4
tp828
aa(lp829
I0
aI0
aa(lp830
I14
aI0
aa(lp831
I22
aI0
aa(lp832
I0
aI0
aa(lp833
I3
aI0
aa(lp834
I1
aI0
aaa(lp835
(lp836
I0
aI0
aa(lp837
I0
aI0
aa(lp838
I21
aI0
aa(lp839
I0
aI0
aa(lp840
I0
aI0
aa(lp841
I12
a(I30
I4
tp842
aa(lp843
I0
aI0
aa(lp844
I2
aI0
aa(lp845
I0
aI0
aa(lp846
I20
aI0
aa(lp847
I1
aI0
aa(lp848
I1
aI0
aaa(lp849
(lp850
I0
aI0
aa(lp851
I13
aI0
aa(lp852
I6
aI0
aa(lp853
I13
aI0
aa(lp854
I0
aI0
aa(lp855
I12
a(I31
I4
tp856
aa(lp857
I0
aI0
aa(lp858
I0
aI0
aa(lp859
I0
aI0
aa(lp860
I0
aI0
aa(lp861
I0
aI0
aa(lp862
I20
aI0
aaaa(lp863
(lp864
(lp865
I0
aI0
aa(lp866
I22
aI0
aa(lp867
I10
aI0
aa(lp868
I8
aI0
aa(lp869
I8
aI0
aa(lp870
I8
aI0
aa(lp871
I4
aI0
aa(lp872
I0
aI0
aa(lp873
I0
aI0
aa(lp874
I0
aI0
aa(lp875
I0
aI0
aa(lp876
I8
aI0
aa(lp877
I8
aI0
aa(lp878
I25
aI0
aa(lp879
I0
aI0
aa(lp880
I8
aI0
aa(lp881
I25
aI0
aa(lp882
I8
aI0
aa(lp883
I0
aI0
aa(lp884
I4
aI0
aa(lp885
I8
aI0
aa(lp886
I25
aI0
aa(lp887
I8
aI0
aa(lp888
I25
aI0
aaa(lp889
(lp890
I8
aI0
aa(lp891
I8
aI0
aa(lp892
I8
aI0
aa(lp893
I8
aI0
aa(lp894
I8
aI0
aa(lp895
I8
aI0
aa(lp896
I8
aI0
aa(lp897
I8
aI0
aa(lp898
I8
aI0
aa(lp899
I8
aI0
aa(lp900
I0
aI0
aa(lp901
I8
aI0
aa(lp902
I8
aI0
aa(lp903
I0
aI0
aa(lp904
I4
aI0
aa(lp905
I25
aI0
aa(lp906
I8
aI0
aa(lp907
I0
aI0
aa(lp908
I25
aI0
aa(lp909
I8
aI0
aa(lp910
I8
aI0
aa(lp911
I8
aI0
aa(lp912
I0
aI0
aa(lp913
I4
aI0
aaa(lp914
(lp915
I8
aI0
aa(lp916
I0
aI0
aa(lp917
I8
aI0
aa(lp918
I22
aI0
aa(lp919
I25
aI0
aa(lp920
I22
aI0
aa(lp921
I8
aI0
aa(lp922
I8
aI0
aa(lp923
I8
aI0
aa(lp924
I8
aI0
aa(lp925
I8
aI0
aa(lp926
I8
aI0
aa(lp927
I8
aI0
aa(lp928
I25
aI0
aa(lp929
I0
aI0
aa(lp930
I0
aI0
aa(lp931
I8
aI0
aa(lp932
I4
aI0
aa(lp933
I8
aI0
aa(lp934
I25
aI0
aa(lp935
I25
aI0
aa(lp936
I8
aI0
aa(lp937
I8
aI0
aa(lp938
I25
aI0
aaa(lp939
(lp940
I6
aI0
aa(lp941
I8
aI0
aa(lp942
I8
aI0
aa(lp943
I25
aI0
aa(lp944
I3
aI0
aa(lp945
I14
aI0
aa(lp946
I21
aI0
aa(lp947
I8
aI0
aa(lp948
I8
aI0
aa(lp949
I8
aI0
aa(lp950
I8
aI0
aa(lp951
I8
aI0
aa(lp952
I8
aI0
aa(lp953
I8
aI0
aa(lp954
I8
aI0
aa(lp955
I25
aI0
aa(lp956
I8
aI0
aa(lp957
I25
aI0
aa(lp958
I8
aI0
aa(lp959
I8
aI0
aa(lp960
I0
aI0
aa(lp961
I25
aI0
aa(lp962
I22
aI0
aa(lp963
I8
aI0
aaa(lp964
(lp965
I10
aI0
aa(lp966
I8
aI0
aa(lp967
I0
aI0
aa(lp968
I25
aI0
aa(lp969
I3
aI0
aa(lp970
I14
aI0
aa(lp971
I21
aI0
aa(lp972
I4
aI0
aa(lp973
I8
aI0
aa(lp974
I9
aI0
aa(lp975
I8
aI0
aa(lp976
I8
aI0
aa(lp977
I0
aI0
aa(lp978
I8
aI0
aa(lp979
I25
aI0
aa(lp980
I25
aI0
aa(lp981
I0
aI0
aa(lp982
I8
aI0
aa(lp983
I25
aI0
aa(lp984
I20
aI0
aa(lp985
I4
aI0
aa(lp986
I0
aI0
aa(lp987
I8
aI0
aa(lp988
I8
aI0
aaa(lp989
(lp990
I0
aI0
aa(lp991
I8
aI0
aa(lp992
I14
aI0
aa(lp993
I22
aI0
aa(lp994
I25
aI0
aa(lp995
I22
aI0
aa(lp996
I8
aI0
aa(lp997
I0
aI0
aa(lp998
I0
aI0
aa(lp999
I8
aI0
aa(lp1000
I25
aI0
aa(lp1001
I0
aI0
aa(lp1002
I0
aI0
aa(lp1003
I0
aI0
aa(lp1004
I25
aI0
aa(lp1005
I8
aI0
aa(lp1006
I0
aI0
aa(lp1007
I8
aI0
aa(lp1008
I0
aI0
aa(lp1009
I8
aI0
aa(lp1010
I25
aI0
aa(lp1011
I22
aI0
aa(lp1012
I22
aI0
aa(lp1013
I8
aI0
aaa(lp1014
(lp1015
I22
aI0
aa(lp1016
I8
aI0
aa(lp1017
I0
aI0
aa(lp1018
I0
aI0
aa(lp1019
I8
aI0
aa(lp1020
I8
aI0
aa(lp1021
I8
aI0
aa(lp1022
I4
aI0
aa(lp1023
I0
aI0
aa(lp1024
I25
aI0
aa(lp1025
I5
aI0
aa(lp1026
I22
aI0
aa(lp1027
I25
aI0
aa(lp1028
I0
aI0
aa(lp1029
I8
aI0
aa(lp1030
I0
aI0
aa(lp1031
I8
aI0
aa(lp1032
I25
aI0
aa(lp1033
I8
aI0
aa(lp1034
I8
aI0
aa(lp1035
I22
aI0
aa(lp1036
I0
aI0
aa(lp1037
I25
aI0
aa(lp1038
I8
aI0
aaa(lp1039
(lp1040
I22
aI0
aa(lp1041
I8
aI0
aa(lp1042
I0
aI0
aa(lp1043
I14
aI0
aa(lp1044
I8
aI0
aa(lp1045
I8
aI0
aa(lp1046
I8
aI0
aa(lp1047
I0
aI0
aa(lp1048
I4
aI0
aa(lp1049
I8
aI0
aa(lp1050
I25
aI0
aa(lp1051
I9
aI0
aa(lp1052
I0
aI0
aa(lp1053
I0
aI0
aa(lp1054
I8
aI0
aa(lp1055
I0
aI0
aa(lp1056
I0
aI0
aa(lp1057
I4
aI0
aa(lp1058
I0
aI0
aa(lp1059
I25
aI0
aa(lp1060
I22
aI0
aa(lp1061
I25
aI0
aa(lp1062
I8
aI0
aa(lp1063
I8
aI0
aaa(lp1064
(lp1065
I8
aI0
aa(lp1066
I8
aI0
aa(lp1067
I10
aI0
aa(lp1068
I0
aI0
aa(lp1069
I8
aI0
aa(lp1070
I8
aI0
aa(lp1071
I0
aI0
aa(lp1072
I4
aI0
aa(lp1073
I0
aI0
aa(lp1074
I8
aI0
aa(lp1075
I0
aI0
aa(lp1076
I14
aI0
aa(lp1077
I22
aI0
aa(lp1078
I8
aI0
aa(lp1079
I8
aI0
aa(lp1080
I8
aI0
aa(lp1081
I25
aI0
aa(lp1082
I0
aI0
aa(lp1083
I25
aI0
aa(lp1084
I8
aI0
aa(lp1085
I0
aI0
aa(lp1086
I8
aI0
aa(lp1087
I8
aI0
aa(lp1088
I25
aI0
aaa(lp1089
(lp1090
I8
aI0
aa(lp1091
I8
aI0
aa(lp1092
I0
aI0
aa(lp1093
I0
aI0
aa(lp1094
I8
aI0
aa(lp1095
I8
aI0
aa(lp1096
I4
aI0
aa(lp1097
I8
aI0
aa(lp1098
I8
aI0
aa(lp1099
I8
aI0
aa(lp1100
I0
aI0
aa(lp1101
I8
aI0
aa(lp1102
I8
aI0
aa(lp1103
I8
aI0
aa(lp1104
I8
aI0
aa(lp1105
I0
aI0
aa(lp1106
I0
aI0
aa(lp1107
I4
aI0
aa(lp1108
I0
aI0
aa(lp1109
I8
aI0
aa(lp1110
I0
aI0
aa(lp1111
I25
aI0
aa(lp1112
I8
aI0
aa(lp1113
I8
aI0
aaa(lp1114
(lp1115
I8
aI0
aa(lp1116
I8
aI0
aa(lp1117
I8
aI0
aa(lp1118
I8
aI0
aa(lp1119
I8
aI0
aa(lp1120
I8
aI0
aa(lp1121
I8
aI0
aa(lp1122
I8
aI0
aa(lp1123
I0
aI0
aa(lp1124
I8
aI0
aa(lp1125
I8
aI0
aa(lp1126
I8
aI0
aa(lp1127
I8
aI0
aa(lp1128
I8
aI0
aa(lp1129
I25
aI0
aa(lp1130
I0
aI0
aa(lp1131
I8
aI0
aa(lp1132
I0
aI0
aa(lp1133
I8
aI0
aa(lp1134
I8
aI0
aa(lp1135
I8
aI0
aa(lp1136
I8
aI0
aa(lp1137
I8
aI0
aa(lp1138
I4
aI0
aaa(lp1139
(lp1140
I8
aI0
aa(lp1141
I5
aI0
aa(lp1142
I14
aI0
aa(lp1143
I14
aI0
aa(lp1144
I8
aI0
aa(lp1145
I8
aI0
aa(lp1146
I0
aI0
aa(lp1147
I0
aI0
aa(lp1148
I8
aI0
aa(lp1149
I8
aI0
aa(lp1150
I8
aI0
aa(lp1151
I8
aI0
aa(lp1152
I8
aI0
aa(lp1153
I0
aI0
aa(lp1154
I8
aI0
aa(lp1155
I8
aI0
aa(lp1156
I25
aI0
aa(lp1157
I8
aI0
aa(lp1158
I0
aI0
aa(lp1159
I0
aI0
aa(lp1160
I4
aI0
aa(lp1161
I8
aI0
aa(lp1162
I25
aI0
aa(lp1163
I0
aI0
aaa(lp1164
(lp1165
I8
aI0
aa(lp1166
I14
aI0
aa(lp1167
I14
aI0
aa(lp1168
I8
aI0
aa(lp1169
I8
aI0
aa(lp1170
I0
aI0
aa(lp1171
I0
aI0
aa(lp1172
I8
aI0
aa(lp1173
I8
aI0
aa(lp1174
I0
aI0
aa(lp1175
I8
aI0
aa(lp1176
I8
aI0
aa(lp1177
I8
aI0
aa(lp1178
I8
aI0
aa(lp1179
I4
aI0
aa(lp1180
I22
aI0
aa(lp1181
I0
aI0
aa(lp1182
I22
aI0
aa(lp1183
I22
aI0
aa(lp1184
I8
aI0
aa(lp1185
I25
aI0
aa(lp1186
I0
aI0
aa(lp1187
I4
aI0
aa(lp1188
I4
aI0
aaa(lp1189
(lp1190
I8
aI0
aa(lp1191
I8
aI0
aa(lp1192
I8
aI0
aa(lp1193
I8
aI0
aa(lp1194
I0
aI0
aa(lp1195
I8
aI0
aa(lp1196
I8
aI0
aa(lp1197
I9
aI0
aa(lp1198
I8
aI0
aa(lp1199
I0
aI0
aa(lp1200
I22
aI0
aa(lp1201
I22
aI0
aa(lp1202
I22
aI0
aa(lp1203
I25
aI0
aa(lp1204
I0
aI0
aa(lp1205
I4
aI0
aa(lp1206
I22
aI0
aa(lp1207
I22
aI0
aa(lp1208
I25
aI0
aa(lp1209
I8
aI0
aa(lp1210
I0
aI0
aa(lp1211
I4
aI0
aa(lp1212
I8
aI0
aa(lp1213
I8
aI0
aaa(lp1214
(lp1215
I5
aI0
aa(lp1216
I5
aI0
aa(lp1217
I8
aI0
aa(lp1218
I8
aI0
aa(lp1219
I25
aI0
aa(lp1220
I0
aI0
aa(lp1221
I8
aI0
aa(lp1222
I8
aI0
aa(lp1223
I8
aI0
aa(lp1224
I8
aI0
aa(lp1225
I8
aI0
aa(lp1226
I8
aI0
aa(lp1227
I8
aI0
aa(lp1228
I8
aI0
aa(lp1229
I8
aI0
aa(lp1230
I0
aI0
aa(lp1231
I8
aI0
aa(lp1232
I8
aI0
aa(lp1233
I4
aI0
aa(lp1234
I4
aI0
aa(lp1235
I8
aI0
aa(lp1236
I0
aI0
aa(lp1237
I8
aI0
aa(lp1238
I8
aI0
aaa(lp1239
(lp1240
I5
aI0
aa(lp1241
I5
aI0
aa(lp1242
I8
aI0
aa(lp1243
I8
aI0
aa(lp1244
I0
aI0
aa(lp1245
I0
aI0
aa(lp1246
I8
aI0
aa(lp1247
I8
aI0
aa(lp1248
I8
aI0
aa(lp1249
I25
aI0
aa(lp1250
I0
aI0
aa(lp1251
I8
aI0
aa(lp1252
I8
aI0
aa(lp1253
I0
aI0
aa(lp1254
I25
aI0
aa(lp1255
I8
aI0
aa(lp1256
I8
aI0
aa(lp1257
I0
aI0
aa(lp1258
I0
aI0
aa(lp1259
I4
aI0
aa(lp1260
I4
aI0
aa(lp1261
I8
aI0
aa(lp1262
I8
aI0
aa(lp1263
I25
aI0
aaaa(lp1264
(lp1265
(lp1266
I0
aI0
aa(lp1267
I22
aI0
aa(lp1268
I0
aI0
aa(lp1269
I22
aI0
aa(lp1270
I0
aI0
aa(lp1271
I0
aI0
aa(lp1272
I0
aI0
aa(lp1273
I12
a(I15
I16
tp1274
aa(lp1275
I0
aI0
aa(lp1276
I0
aI0
aa(lp1277
I13
aI0
aa(lp1278
I14
aI0
aa(lp1279
I22
aI0
aa(lp1280
I14
aI0
aa(lp1281
I22
aI0
aa(lp1282
I14
aI0
aa(lp1283
I22
aI0
aa(lp1284
I13
aI0
aa(lp1285
I6
aI0
aa(lp1286
I0
aI0
aa(lp1287
I7
a(I5
I22
tp1288
aa(lp1289
I13
aI0
aa(lp1290
I0
aI0
aa(lp1291
I7
a(I2
I20
tp1292
aaa(lp1293
(lp1294
I0
aI0
aa(lp1295
I22
aI0
aa(lp1296
I0
aI0
aa(lp1297
I0
aI0
aa(lp1298
I22
aI0
aa(lp1299
I0
aI0
aa(lp1300
I0
aI0
aa(lp1301
I0
aI0
aa(lp1302
I0
aI0
aa(lp1303
I0
aI0
aa(lp1304
I13
aI0
aa(lp1305
I20
aI0
aa(lp1306
I14
aI0
aa(lp1307
I22
aI0
aa(lp1308
I14
aI0
aa(lp1309
I22
aI0
aa(lp1310
I14
aI0
aa(lp1311
I13
aI0
aa(lp1312
I0
aI0
aa(lp1313
I0
aI0
aa(lp1314
I13
aI0
aa(lp1315
I0
aI0
aa(lp1316
I7
a(I1
I19
tp1317
aa(lp1318
I13
aI0
aaa(lp1319
(lp1320
I5
aI0
aa(lp1321
I5
aI0
aa(lp1322
I5
aI0
aa(lp1323
I5
aI0
aa(lp1324
I5
aI0
aa(lp1325
I5
aI0
aa(lp1326
I5
aI0
aa(lp1327
I5
aI0
aa(lp1328
I5
aI0
aa(lp1329
I5
aI0
aa(lp1330
I13
aI0
aa(lp1331
I14
aI0
aa(lp1332
I22
aI0
aa(lp1333
I14
aI0
aa(lp1334
I8
aI0
aa(lp1335
I14
aI0
aa(lp1336
I14
aI0
aa(lp1337
I13
aI0
aa(lp1338
I7
a(I15
I17
tp1339
aa(lp1340
I13
aI0
aa(lp1341
I0
aI0
aa(lp1342
I7
a(I3
I23
tp1343
aa(lp1344
I13
aI0
aa(lp1345
I7
a(I7
I18
tp1346
aaa(lp1347
(lp1348
I0
aI0
aa(lp1349
I0
aI0
aa(lp1350
I22
aI0
aa(lp1351
I0
aI0
aa(lp1352
I0
aI0
aa(lp1353
I22
aI0
aa(lp1354
I0
aI0
aa(lp1355
I0
aI0
aa(lp1356
I22
aI0
aa(lp1357
I0
aI0
aa(lp1358
I13
aI0
aa(lp1359
I22
aI0
aa(lp1360
I8
aI0
aa(lp1361
I22
aI0
aa(lp1362
I22
aI0
aa(lp1363
I8
aI0
aa(lp1364
I22
aI0
aa(lp1365
I13
aI0
aa(lp1366
I13
aI0
aa(lp1367
I0
aI0
aa(lp1368
I7
a(I0
I22
tp1369
aa(lp1370
I13
aI0
aa(lp1371
I0
aI0
aa(lp1372
I0
aI0
aaa(lp1373
(lp1374
I0
aI0
aa(lp1375
I0
aI0
aa(lp1376
I0
aI0
aa(lp1377
I5
aI0
aa(lp1378
I13
aI0
aa(lp1379
I0
aI0
aa(lp1380
I0
aI0
aa(lp1381
I0
aI0
aa(lp1382
I0
aI0
aa(lp1383
I0
aI0
aa(lp1384
I13
aI0
aa(lp1385
I22
aI0
aa(lp1386
I14
aI0
aa(lp1387
I22
aI0
aa(lp1388
I14
aI0
aa(lp1389
I14
aI0
aa(lp1390
I22
aI0
aa(lp1391
I13
aI0
aa(lp1392
I0
aI0
aa(lp1393
I7
a(I5
I20
tp1394
aa(lp1395
I13
aI0
aa(lp1396
I0
aI0
aa(lp1397
I7
a(I3
I19
tp1398
aa(lp1399
I13
aI0
aaa(lp1400
(lp1401
I5
aI0
aa(lp1402
I22
aI0
aa(lp1403
I0
aI0
aa(lp1404
I22
aI0
aa(lp1405
I0
aI0
aa(lp1406
I5
aI0
aa(lp1407
I13
aI0
aa(lp1408
I0
aI0
aa(lp1409
I0
aI0
aa(lp1410
I0
aI0
aa(lp1411
I13
aI0
aa(lp1412
I14
aI0
aa(lp1413
I22
aI0
aa(lp1414
I14
aI0
aa(lp1415
I14
aI0
aa(lp1416
I22
aI0
aa(lp1417
I14
aI0
aa(lp1418
I13
aI0
aa(lp1419
I0
aI0
aa(lp1420
I13
aI0
aa(lp1421
I0
aI0
aa(lp1422
I13
aI0
aa(lp1423
I0
aI0
aa(lp1424
I0
aI0
aaa(lp1425
(lp1426
I0
aI0
aa(lp1427
I0
aI0
aa(lp1428
I0
aI0
aa(lp1429
I0
aI0
aa(lp1430
I0
aI0
aa(lp1431
I0
aI0
aa(lp1432
I0
aI0
aa(lp1433
I0
aI0
aa(lp1434
I0
aI0
aa(lp1435
I0
aI0
aa(lp1436
I13
aI0
aa(lp1437
I8
aI0
aa(lp1438
I22
aI0
aa(lp1439
I8
aI0
aa(lp1440
I14
aI0
aa(lp1441
I22
aI0
aa(lp1442
I14
aI0
aa(lp1443
I13
aI0
aa(lp1444
I7
a(I4
I21
tp1445
aa(lp1446
I0
aI0
aa(lp1447
I7
a(I5
I18
tp1448
aa(lp1449
I0
aI0
aa(lp1450
I0
aI0
aa(lp1451
I7
a(I2
I20
tp1452
aaa(lp1453
(lp1454
I0
aI0
aa(lp1455
I5
aI0
aa(lp1456
I14
aI0
aa(lp1457
I22
aI0
aa(lp1458
I0
aI0
aa(lp1459
I0
aI0
aa(lp1460
I0
aI0
aa(lp1461
I0
aI0
aa(lp1462
I5
aI0
aa(lp1463
I13
aI0
aa(lp1464
I13
aI0
aa(lp1465
I14
aI0
aa(lp1466
I14
aI0
aa(lp1467
I14
aI0
aa(lp1468
I22
aI0
aa(lp1469
I14
aI0
aa(lp1470
I14
aI0
aa(lp1471
I13
aI0
aa(lp1472
I0
aI0
aa(lp1473
I13
aI0
aa(lp1474
I13
aI0
aa(lp1475
I13
aI0
aa(lp1476
I13
aI0
aa(lp1477
I13
aI0
aaa(lp1478
(lp1479
I25
aI0
aa(lp1480
I25
aI0
aa(lp1481
I22
aI0
aa(lp1482
I22
aI0
aa(lp1483
I22
aI0
aa(lp1484
I22
aI0
aa(lp1485
I22
aI0
aa(lp1486
I22
aI0
aa(lp1487
I22
aI0
aa(lp1488
I22
aI0
aa(lp1489
I24
aI0
aa(lp1490
I14
aI0
aa(lp1491
I14
aI0
aa(lp1492
I14
aI0
aa(lp1493
I8
aI0
aa(lp1494
I22
aI0
aa(lp1495
I14
aI0
aa(lp1496
I13
aI0
aa(lp1497
I0
aI0
aa(lp1498
I0
aI0
aa(lp1499
I0
aI0
aa(lp1500
I0
aI0
aa(lp1501
I0
aI0
aa(lp1502
I0
aI0
aaa(lp1503
(lp1504
I0
aI0
aa(lp1505
I4
aI0
aa(lp1506
I0
aI0
aa(lp1507
I0
aI0
aa(lp1508
I4
aI0
aa(lp1509
I25
aI0
aa(lp1510
I25
aI0
aa(lp1511
I0
aI0
aa(lp1512
I0
aI0
aa(lp1513
I25
aI0
aa(lp1514
I24
aI0
aa(lp1515
I14
aI0
aa(lp1516
I14
aI0
aa(lp1517
I22
aI0
aa(lp1518
I14
aI0
aa(lp1519
I22
aI0
aa(lp1520
I14
aI0
aa(lp1521
I13
aI0
aa(lp1522
I13
aI0
aa(lp1523
I0
aI0
aa(lp1524
I13
aI0
aa(lp1525
I13
aI0
aa(lp1526
I13
aI0
aa(lp1527
I0
aI0
aaa(lp1528
(lp1529
I0
aI0
aa(lp1530
I0
aI0
aa(lp1531
I0
aI0
aa(lp1532
I25
aI0
aa(lp1533
I25
aI0
aa(lp1534
I0
aI0
aa(lp1535
I0
aI0
aa(lp1536
I0
aI0
aa(lp1537
I4
aI0
aa(lp1538
I0
aI0
aa(lp1539
I24
aI0
aa(lp1540
I0
aI0
aa(lp1541
I14
aI0
aa(lp1542
I8
aI0
aa(lp1543
I14
aI0
aa(lp1544
I22
aI0
aa(lp1545
I14
aI0
aa(lp1546
I13
aI0
aa(lp1547
I0
aI0
aa(lp1548
I0
aI0
aa(lp1549
I0
aI0
aa(lp1550
I3
aI0
aa(lp1551
I13
aI0
aa(lp1552
I0
aI0
aaa(lp1553
(lp1554
I0
aI0
aa(lp1555
I25
aI0
aa(lp1556
I4
aI0
aa(lp1557
I0
aI0
aa(lp1558
I0
aI0
aa(lp1559
I22
aI0
aa(lp1560
I0
aI0
aa(lp1561
I22
aI0
aa(lp1562
I25
aI0
aa(lp1563
I25
aI0
aa(lp1564
I24
aI0
aa(lp1565
I0
aI0
aa(lp1566
I0
aI0
aa(lp1567
I13
aI0
aa(lp1568
I14
aI0
aa(lp1569
I22
aI0
aa(lp1570
I8
aI0
aa(lp1571
I13
aI0
aa(lp1572
I0
aI0
aa(lp1573
I0
aI0
aa(lp1574
I0
aI0
aa(lp1575
I0
aI0
aa(lp1576
I15
aI0
aa(lp1577
I0
aI0
aaa(lp1578
(lp1579
I0
aI0
aa(lp1580
I4
aI0
aa(lp1581
I25
aI0
aa(lp1582
I0
aI0
aa(lp1583
I14
aI0
aa(lp1584
I14
aI0
aa(lp1585
I14
aI0
aa(lp1586
I14
aI0
aa(lp1587
I14
aI0
aa(lp1588
I8
aI0
aa(lp1589
I21
aI0
aa(lp1590
I0
aI0
aa(lp1591
I0
aI0
aa(lp1592
I13
aI0
aa(lp1593
I22
aI0
aa(lp1594
I22
aI0
aa(lp1595
I14
aI0
aa(lp1596
I13
aI0
aa(lp1597
I0
aI0
aa(lp1598
I0
aI0
aa(lp1599
I11
a(I13
I19
tp1600
aa(lp1601
I0
aI0
aa(lp1602
I0
aI0
aa(lp1603
I0
aI0
aaa(lp1604
(lp1605
I0
aI0
aa(lp1606
I25
aI0
aa(lp1607
I0
aI0
aa(lp1608
I0
aI0
aa(lp1609
I25
aI0
aa(lp1610
I4
aI0
aa(lp1611
I25
aI0
aa(lp1612
I0
aI0
aa(lp1613
I22
aI0
aa(lp1614
I0
aI0
aa(lp1615
I13
aI0
aa(lp1616
I0
aI0
aa(lp1617
I25
aI0
aa(lp1618
I0
aI0
aa(lp1619
I0
aI0
aa(lp1620
I0
aI0
aa(lp1621
I13
aI0
aa(lp1622
I13
aI0
aa(lp1623
I18
aI0
aa(lp1624
I0
aI0
aa(lp1625
I0
aI0
aa(lp1626
I0
aI0
aa(lp1627
I15
aI0
aa(lp1628
I0
aI0
aaa(lp1629
(lp1630
I25
aI0
aa(lp1631
I0
aI0
aa(lp1632
I25
aI0
aa(lp1633
I0
aI0
aa(lp1634
I25
aI0
aa(lp1635
I0
aI0
aa(lp1636
I0
aI0
aa(lp1637
I0
aI0
aa(lp1638
I25
aI0
aa(lp1639
I4
aI0
aa(lp1640
I25
aI0
aa(lp1641
I23
aI0
aa(lp1642
I10
aI0
aa(lp1643
I0
aI0
aa(lp1644
I0
aI0
aa(lp1645
I13
aI0
aa(lp1646
I15
aI0
aa(lp1647
I12
a(I14
I15
tp1648
aa(lp1649
I0
aI0
aa(lp1650
I18
aI0
aa(lp1651
I0
aI0
aa(lp1652
I13
aI0
aa(lp1653
I0
aI0
aa(lp1654
I0
aI0
aaa(lp1655
(lp1656
I4
aI0
aa(lp1657
I0
aI0
aa(lp1658
I0
aI0
aa(lp1659
I0
aI0
aa(lp1660
I25
aI0
aa(lp1661
I0
aI0
aa(lp1662
I0
aI0
aa(lp1663
I0
aI0
aa(lp1664
I25
aI0
aa(lp1665
I0
aI0
aa(lp1666
I23
aI0
aa(lp1667
I0
aI0
aa(lp1668
I22
aI0
aa(lp1669
I0
aI0
aa(lp1670
I0
aI0
aa(lp1671
I13
aI0
aa(lp1672
I13
aI0
aa(lp1673
I0
aI0
aa(lp1674
I0
aI0
aa(lp1675
I8
aI0
aa(lp1676
I0
aI0
aa(lp1677
I0
aI0
aa(lp1678
I0
aI0
aa(lp1679
I0
aI0
aaa(lp1680
(lp1681
I25
aI0
aa(lp1682
I0
aI0
aa(lp1683
I25
aI0
aa(lp1684
I0
aI0
aa(lp1685
I4
aI0
aa(lp1686
I0
aI0
aa(lp1687
I25
aI0
aa(lp1688
I0
aI0
aa(lp1689
I4
aI0
aa(lp1690
I0
aI0
aa(lp1691
I25
aI0
aa(lp1692
I23
aI0
aa(lp1693
I10
aI0
aa(lp1694
I0
aI0
aa(lp1695
I0
aI0
aa(lp1696
I13
aI0
aa(lp1697
I15
aI0
aa(lp1698
I12
a(I16
I15
tp1699
aa(lp1700
I0
aI0
aa(lp1701
I16
aI0
aa(lp1702
I0
aI0
aa(lp1703
I13
aI0
aa(lp1704
I18
aI0
aa(lp1705
I0
aI0
aaa(lp1706
(lp1707
I0
aI0
aa(lp1708
I0
aI0
aa(lp1709
I0
aI0
aa(lp1710
I0
aI0
aa(lp1711
I0
aI0
aa(lp1712
I0
aI0
aa(lp1713
I0
aI0
aa(lp1714
I25
aI0
aa(lp1715
I0
aI0
aa(lp1716
I0
aI0
aa(lp1717
I21
aI0
aa(lp1718
I0
aI0
aa(lp1719
I0
aI0
aa(lp1720
I0
aI0
aa(lp1721
I0
aI0
aa(lp1722
I0
aI0
aa(lp1723
I13
aI0
aa(lp1724
I13
aI0
aa(lp1725
I0
aI0
aa(lp1726
I8
aI0
aa(lp1727
I0
aI0
aa(lp1728
I0
aI0
aa(lp1729
I0
aI0
aa(lp1730
I0
aI0
aaa(lp1731
(lp1732
I0
aI0
aa(lp1733
I25
aI0
aa(lp1734
I0
aI0
aa(lp1735
I20
aI0
aa(lp1736
I0
aI0
aa(lp1737
I25
aI0
aa(lp1738
I22
aI0
aa(lp1739
I0
aI0
aa(lp1740
I0
aI0
aa(lp1741
I22
aI0
aa(lp1742
I24
aI0
aa(lp1743
I0
aI0
aa(lp1744
I0
aI0
aa(lp1745
I0
aI0
aa(lp1746
I0
aI0
aa(lp1747
I0
aI0
aa(lp1748
I0
aI0
aa(lp1749
I13
aI0
aa(lp1750
I0
aI0
aa(lp1751
I8
aI0
aa(lp1752
I17
aI0
aa(lp1753
I0
aI0
aa(lp1754
I16
aI0
aa(lp1755
I0
aI0
aaa(lp1756
(lp1757
I4
aI0
aa(lp1758
I0
aI0
aa(lp1759
I25
aI0
aa(lp1760
I25
aI0
aa(lp1761
I0
aI0
aa(lp1762
I0
aI0
aa(lp1763
I0
aI0
aa(lp1764
I0
aI0
aa(lp1765
I25
aI0
aa(lp1766
I0
aI0
aa(lp1767
I24
aI0
aa(lp1768
I0
aI0
aa(lp1769
I0
aI0
aa(lp1770
I0
aI0
aa(lp1771
I2
aI0
aa(lp1772
I2
aI0
aa(lp1773
I2
aI0
aa(lp1774
I13
aI0
aa(lp1775
I0
aI0
aa(lp1776
I8
aI0
aa(lp1777
I0
aI0
aa(lp1778
I0
aI0
aa(lp1779
I0
aI0
aa(lp1780
I0
aI0
aaa(lp1781
(lp1782
I25
aI0
aa(lp1783
I0
aI0
aa(lp1784
I0
aI0
aa(lp1785
I0
aI0
aa(lp1786
I0
aI0
aa(lp1787
I4
aI0
aa(lp1788
I0
aI0
aa(lp1789
I0
aI0
aa(lp1790
I4
aI0
aa(lp1791
I22
aI0
aa(lp1792
I24
aI0
aa(lp1793
I0
aI0
aa(lp1794
I2
aI0
aa(lp1795
I2
aI0
aa(lp1796
I2
aI0
aa(lp1797
I0
aI0
aa(lp1798
I0
aI0
aa(lp1799
I13
aI0
aa(lp1800
I0
aI0
aa(lp1801
I8
aI0
aa(lp1802
I0
aI0
aa(lp1803
I0
aI0
aa(lp1804
I0
aI0
aa(lp1805
I0
aI0
aaa(lp1806
(lp1807
I0
aI0
aa(lp1808
I0
aI0
aa(lp1809
I4
aI0
aa(lp1810
I25
aI0
aa(lp1811
I0
aI0
aa(lp1812
I0
aI0
aa(lp1813
I0
aI0
aa(lp1814
I25
aI0
aa(lp1815
I25
aI0
aa(lp1816
I4
aI0
aa(lp1817
I24
aI0
aa(lp1818
I2
aI0
aa(lp1819
I2
aI0
aa(lp1820
I3
aI0
aa(lp1821
I0
aI0
aa(lp1822
I0
aI0
aa(lp1823
I0
aI0
aa(lp1824
I13
aI0
aa(lp1825
I4
aI0
aa(lp1826
I8
aI0
aa(lp1827
I0
aI0
aa(lp1828
I4
aI0
aa(lp1829
I0
aI0
aa(lp1830
I0
aI0
aaa(lp1831
(lp1832
I22
aI0
aa(lp1833
I22
aI0
aa(lp1834
I25
aI0
aa(lp1835
I22
aI0
aa(lp1836
I25
aI0
aa(lp1837
I22
aI0
aa(lp1838
I22
aI0
aa(lp1839
I22
aI0
aa(lp1840
I22
aI0
aa(lp1841
I22
aI0
aa(lp1842
I24
aI0
aa(lp1843
I2
aI0
aa(lp1844
I0
aI0
aa(lp1845
I0
aI0
aa(lp1846
I0
aI0
aa(lp1847
I0
aI0
aa(lp1848
I3
aI0
aa(lp1849
I13
aI0
aa(lp1850
I17
aI0
aa(lp1851
I8
aI0
aa(lp1852
I0
aI0
aa(lp1853
I0
aI0
aa(lp1854
I18
aI0
aa(lp1855
I0
aI0
aaa(lp1856
(lp1857
I0
aI0
aa(lp1858
I0
aI0
aa(lp1859
I0
aI0
aa(lp1860
I0
aI0
aa(lp1861
I15
aI0
aa(lp1862
I0
aI0
aa(lp1863
I0
aI0
aa(lp1864
I0
aI0
aa(lp1865
I0
aI0
aa(lp1866
I0
aI0
aa(lp1867
I13
aI0
aa(lp1868
I0
aI0
aa(lp1869
I0
aI0
aa(lp1870
I0
aI0
aa(lp1871
I0
aI0
aa(lp1872
I0
aI0
aa(lp1873
I0
aI0
aa(lp1874
I13
aI0
aa(lp1875
I0
aI0
aa(lp1876
I0
aI0
aa(lp1877
I11
a(I22
I19
tp1878
aa(lp1879
I0
aI0
aa(lp1880
I0
aI0
aa(lp1881
I0
aI0
aaa(lp1882
(lp1883
I0
aI0
aa(lp1884
I0
aI0
aa(lp1885
I0
aI0
aa(lp1886
I0
aI0
aa(lp1887
I0
aI0
aa(lp1888
I0
aI0
aa(lp1889
I0
aI0
aa(lp1890
I0
aI0
aa(lp1891
I0
aI0
aa(lp1892
I0
aI0
aa(lp1893
I13
aI0
aa(lp1894
I2
aI0
aa(lp1895
I0
aI0
aa(lp1896
I2
aI0
aa(lp1897
I3
aI0
aa(lp1898
I0
aI0
aa(lp1899
I0
aI0
aa(lp1900
I13
aI0
aa(lp1901
I0
aI0
aa(lp1902
I17
aI0
aa(lp1903
I0
aI0
aa(lp1904
I0
aI0
aa(lp1905
I15
aI0
aa(lp1906
I0
aI0
aaa(lp1907
(lp1908
I0
aI0
aa(lp1909
I0
aI0
aa(lp1910
I5
aI0
aa(lp1911
I5
aI0
aa(lp1912
I17
aI0
aa(lp1913
I0
aI0
aa(lp1914
I0
aI0
aa(lp1915
I0
aI0
aa(lp1916
I0
aI0
aa(lp1917
I0
aI0
aa(lp1918
I13
aI0
aa(lp1919
I2
aI0
aa(lp1920
I2
aI0
aa(lp1921
I2
aI0
aa(lp1922
I2
aI0
aa(lp1923
I2
aI0
aa(lp1924
I2
aI0
aa(lp1925
I13
aI0
aa(lp1926
I3
aI0
aa(lp1927
I0
aI0
aa(lp1928
I0
aI0
aa(lp1929
I0
aI0
aa(lp1930
I0
aI0
aa(lp1931
I0
aI0
aaa(lp1932
(lp1933
I0
aI0
aa(lp1934
I0
aI0
aa(lp1935
I0
aI0
aa(lp1936
I0
aI0
aa(lp1937
I0
aI0
aa(lp1938
I0
aI0
aa(lp1939
I0
aI0
aa(lp1940
I0
aI0
aa(lp1941
I0
aI0
aa(lp1942
I0
aI0
aa(lp1943
I13
aI0
aa(lp1944
I0
aI0
aa(lp1945
I0
aI0
aa(lp1946
I3
aI0
aa(lp1947
I2
aI0
aa(lp1948
I2
aI0
aa(lp1949
I2
aI0
aa(lp1950
I13
aI0
aa(lp1951
I0
aI0
aa(lp1952
I15
aI0
aa(lp1953
I0
aI0
aa(lp1954
I17
aI0
aa(lp1955
I0
aI0
aa(lp1956
I0
aI0
aaa(lp1957
(lp1958
I0
aI0
aa(lp1959
I0
aI0
aa(lp1960
I0
aI0
aa(lp1961
I0
aI0
aa(lp1962
I15
aI0
aa(lp1963
I0
aI0
aa(lp1964
I0
aI0
aa(lp1965
I0
aI0
aa(lp1966
I0
aI0
aa(lp1967
I0
aI0
aa(lp1968
I13
aI0
aa(lp1969
I0
aI0
aa(lp1970
I0
aI0
aa(lp1971
I2
aI0
aa(lp1972
I2
aI0
aa(lp1973
I0
aI0
aa(lp1974
I0
aI0
aa(lp1975
I13
aI0
aa(lp1976
I0
aI0
aa(lp1977
I0
aI0
aa(lp1978
I3
aI0
aa(lp1979
I0
aI0
aa(lp1980
I0
aI0
aa(lp1981
I0
aI0
aaa(lp1982
(lp1983
I0
aI0
aa(lp1984
I0
aI0
aa(lp1985
I0
aI0
aa(lp1986
I0
aI0
aa(lp1987
I0
aI0
aa(lp1988
I0
aI0
aa(lp1989
I0
aI0
aa(lp1990
I0
aI0
aa(lp1991
I0
aI0
aa(lp1992
I0
aI0
aa(lp1993
I13
aI0
aa(lp1994
I3
aI0
aa(lp1995
I0
aI0
aa(lp1996
I2
aI0
aa(lp1997
I2
aI0
aa(lp1998
I0
aI0
aa(lp1999
I3
aI0
aa(lp2000
I13
aI0
aa(lp2001
I0
aI0
aa(lp2002
I17
aI0
aa(lp2003
I0
aI0
aa(lp2004
I0
aI0
aa(lp2005
I15
aI0
aa(lp2006
I0
aI0
aaa(lp2007
(lp2008
I0
aI0
aa(lp2009
I0
aI0
aa(lp2010
I5
aI0
aa(lp2011
I5
aI0
aa(lp2012
I17
aI0
aa(lp2013
I0
aI0
aa(lp2014
I0
aI0
aa(lp2015
I0
aI0
aa(lp2016
I0
aI0
aa(lp2017
I0
aI0
aa(lp2018
I13
aI0
aa(lp2019
I0
aI0
aa(lp2020
I0
aI0
aa(lp2021
I2
aI0
aa(lp2022
I2
aI0
aa(lp2023
I0
aI0
aa(lp2024
I0
aI0
aa(lp2025
I13
aI0
aa(lp2026
I0
aI0
aa(lp2027
I0
aI0
aa(lp2028
I0
aI0
aa(lp2029
I3
aI0
aa(lp2030
I0
aI0
aa(lp2031
I0
aI0
aaa(lp2032
(lp2033
I7
a(I30
I8
tp2034
aa(lp2035
I0
aI0
aa(lp2036
I0
aI0
aa(lp2037
I0
aI0
aa(lp2038
I2
aI0
aa(lp2039
I0
aI0
aa(lp2040
I0
aI0
aa(lp2041
I0
aI0
aa(lp2042
I0
aI0
aa(lp2043
I7
a(I30
I1
tp2044
aa(lp2045
I13
aI0
aa(lp2046
I2
aI0
aa(lp2047
I2
aI0
aa(lp2048
I0
aI0
aa(lp2049
I2
aI0
aa(lp2050
I2
aI0
aa(lp2051
I2
aI0
aa(lp2052
I13
aI0
aa(lp2053
I0
aI0
aa(lp2054
I3
aI0
aa(lp2055
I18
aI0
aa(lp2056
I0
aI0
aa(lp2057
I15
aI0
aa(lp2058
I0
aI0
aaa(lp2059
(lp2060
I0
aI0
aa(lp2061
I0
aI0
aa(lp2062
I0
aI0
aa(lp2063
I0
aI0
aa(lp2064
I11
a(I15
I15
tp2065
aa(lp2066
I0
aI0
aa(lp2067
I0
aI0
aa(lp2068
I0
aI0
aa(lp2069
I0
aI0
aa(lp2070
I0
aI0
aa(lp2071
I13
aI0
aa(lp2072
I0
aI0
aa(lp2073
I0
aI0
aa(lp2074
I20
aI0
aa(lp2075
I0
aI0
aa(lp2076
I0
aI0
aa(lp2077
I0
aI0
aa(lp2078
I13
aI0
aa(lp2079
I0
aI0
aa(lp2080
I0
aI0
aa(lp2081
I0
aI0
aa(lp2082
I0
aI0
aa(lp2083
I0
aI0
aa(lp2084
I0
aI0
aaaasS'def_file'
p2085
S'CTdefs.py'
p2086
sS'level_size'
p2087
(lp2088
(lp2089
I16
aI12
aa(lp2090
I16
aI12
aa(lp2091
I32
aI12
aa(lp2092
I16
aI24
aa(lp2093
I32
aI24
aasS'dave_pos'
p2094
(lp2095
(I5
I5
tp2096
a(I0
I11
tp2097
a(I15
I0
tp2098
a(I0
I0
tp2099
a(I15
I11
tp2100
asS'minimum_score'
p2101
(lp2102
I8
aI11
aI39
aI32
aI46
asb.