(i__main__
Game_Data
p0
(dp1
S'level_map'
p2
(lp3
(lp4
(lp5
(lp6
I23
aI0
aa(lp7
I23
aI0
aa(lp8
I1
aI0
aa(lp9
I1
aI0
aa(lp10
I1
aI0
aa(lp11
I1
aI0
aa(lp12
I1
aI0
aa(lp13
I1
aI0
aa(lp14
I24
aI0
aa(lp15
I25
aI0
aa(lp16
I25
aI0
aa(lp17
I25
aI0
aaa(lp18
(lp19
I23
aI0
aa(lp20
I0
aI0
aa(lp21
I0
aI0
aa(lp22
I0
aI0
aa(lp23
I0
aI0
aa(lp24
I0
aI0
aa(lp25
I6
aI0
aa(lp26
I0
aI0
aa(lp27
I12
a(I4
I10
tp28
aa(lp29
I0
aI0
aa(lp30
I0
aI0
aa(lp31
I25
aI0
aaa(lp32
(lp33
I23
aI0
aa(lp34
I25
aI0
aa(lp35
I13
aI0
aa(lp36
I25
aI0
aa(lp37
I23
aI0
aa(lp38
I1
aI0
aa(lp39
I24
aI0
aa(lp40
I13
aI0
aa(lp41
I23
aI0
aa(lp42
I2
aI0
aa(lp43
I0
aI0
aa(lp44
I25
aI0
aaa(lp45
(lp46
I23
aI0
aa(lp47
I0
aI0
aa(lp48
I0
aI0
aa(lp49
I2
aI0
aa(lp50
I0
aI0
aa(lp51
I0
aI0
aa(lp52
I4
aI0
aa(lp53
I18
aI0
aa(lp54
I23
aI0
aa(lp55
I3
aI0
aa(lp56
I0
aI0
aa(lp57
I25
aI0
aaa(lp58
(lp59
I23
aI0
aa(lp60
I0
aI0
aa(lp61
I3
aI0
aa(lp62
I5
aI0
aa(lp63
I22
aI0
aa(lp64
I0
aI0
aa(lp65
I0
aI0
aa(lp66
I23
aI0
aa(lp67
I24
aI0
aa(lp68
I25
aI0
aa(lp69
I13
aI0
aa(lp70
I24
aI0
aaa(lp71
(lp72
I23
aI0
aa(lp73
I0
aI0
aa(lp74
I0
aI0
aa(lp75
I3
aI0
aa(lp76
I5
aI0
aa(lp77
I22
aI0
aa(lp78
I14
aI0
aa(lp79
I24
aI0
aa(lp80
I3
aI0
aa(lp81
I0
aI0
aa(lp82
I3
aI0
aa(lp83
I1
aI0
aaa(lp84
(lp85
I23
aI0
aa(lp86
I0
aI0
aa(lp87
I3
aI0
aa(lp88
I22
aI0
aa(lp89
I2
aI0
aa(lp90
I14
aI0
aa(lp91
I14
aI0
aa(lp92
I23
aI0
aa(lp93
I0
aI0
aa(lp94
I20
aI0
aa(lp95
I0
aI0
aa(lp96
I1
aI0
aaa(lp97
(lp98
I23
aI0
aa(lp99
I0
aI0
aa(lp100
I0
aI0
aa(lp101
I8
aI0
aa(lp102
I22
aI0
aa(lp103
I10
aI0
aa(lp104
I5
aI0
aa(lp105
I24
aI0
aa(lp106
I3
aI0
aa(lp107
I0
aI0
aa(lp108
I3
aI0
aa(lp109
I24
aI0
aaa(lp110
(lp111
I23
aI0
aa(lp112
I13
aI0
aa(lp113
I13
aI0
aa(lp114
I23
aI0
aa(lp115
I1
aI0
aa(lp116
I24
aI0
aa(lp117
I12
a(I11
I8
tp118
aa(lp119
I23
aI0
aa(lp120
I25
aI0
aa(lp121
I21
aI0
aa(lp122
I25
aI0
aa(lp123
I1
aI0
aaa(lp124
(lp125
I23
aI0
aa(lp126
I14
aI0
aa(lp127
I5
aI0
aa(lp128
I23
aI0
aa(lp129
I0
aI0
aa(lp130
I5
aI0
aa(lp131
I8
aI0
aa(lp132
I2
aI0
aa(lp133
I0
aI0
aa(lp134
I0
aI0
aa(lp135
I5
aI0
aa(lp136
I1
aI0
aaa(lp137
(lp138
I23
aI0
aa(lp139
I4
aI0
aa(lp140
I0
aI0
aa(lp141
I23
aI0
aa(lp142
I0
aI0
aa(lp143
I2
aI0
aa(lp144
I0
aI0
aa(lp145
I0
aI0
aa(lp146
I0
aI0
aa(lp147
I0
aI0
aa(lp148
I0
aI0
aa(lp149
I1
aI0
aaa(lp150
(lp151
I23
aI0
aa(lp152
I0
aI0
aa(lp153
I0
aI0
aa(lp154
I23
aI0
aa(lp155
I24
aI0
aa(lp156
I0
aI0
aa(lp157
I2
aI0
aa(lp158
I5
aI0
aa(lp159
I13
aI0
aa(lp160
I9
aI0
aa(lp161
I0
aI0
aa(lp162
I1
aI0
aaa(lp163
(lp164
I23
aI0
aa(lp165
I0
aI0
aa(lp166
I0
aI0
aa(lp167
I4
aI0
aa(lp168
I24
aI0
aa(lp169
I0
aI0
aa(lp170
I0
aI0
aa(lp171
I0
aI0
aa(lp172
I0
aI0
aa(lp173
I0
aI0
aa(lp174
I0
aI0
aa(lp175
I1
aI0
aaa(lp176
(lp177
I23
aI0
aa(lp178
I5
aI0
aa(lp179
I11
a(I8
I2
tp180
aa(lp181
I0
aI0
aa(lp182
I24
aI0
aa(lp183
I8
aI0
aa(lp184
I0
aI0
aa(lp185
I0
aI0
aa(lp186
I0
aI0
aa(lp187
I0
aI0
aa(lp188
I8
aI0
aa(lp189
I24
aI0
aaa(lp190
(lp191
I23
aI0
aa(lp192
I0
aI0
aa(lp193
I0
aI0
aa(lp194
I0
aI0
aa(lp195
I24
aI0
aa(lp196
I7
a(I1
I7
tp197
aa(lp198
I8
aI0
aa(lp199
I0
aI0
aa(lp200
I0
aI0
aa(lp201
I8
aI0
aa(lp202
I5
aI0
aa(lp203
I11
a(I2
I7
tp204
aaa(lp205
(lp206
I23
aI0
aa(lp207
I23
aI0
aa(lp208
I1
aI0
aa(lp209
I1
aI0
aa(lp210
I1
aI0
aa(lp211
I1
aI0
aa(lp212
I1
aI0
aa(lp213
I1
aI0
aa(lp214
I1
aI0
aa(lp215
I24
aI0
aa(lp216
I12
a(I2
I2
tp217
aa(lp218
I24
aI0
aaaa(lp219
(lp220
(lp221
I14
aI0
aa(lp222
I14
aI0
aa(lp223
I14
aI0
aa(lp224
I14
aI0
aa(lp225
I14
aI0
aa(lp226
I8
aI0
aa(lp227
I0
aI0
aa(lp228
I0
aI0
aa(lp229
I0
aI0
aa(lp230
I0
aI0
aa(lp231
I13
aI0
aa(lp232
I15
aI0
aaa(lp233
(lp234
I8
aI0
aa(lp235
I8
aI0
aa(lp236
I14
aI0
aa(lp237
I14
aI0
aa(lp238
I14
aI0
aa(lp239
I23
aI0
aa(lp240
I0
aI0
aa(lp241
I0
aI0
aa(lp242
I2
aI0
aa(lp243
I0
aI0
aa(lp244
I0
aI0
aa(lp245
I8
aI0
aaa(lp246
(lp247
I8
aI0
aa(lp248
I5
aI0
aa(lp249
I5
aI0
aa(lp250
I23
aI0
aa(lp251
I1
aI0
aa(lp252
I24
aI0
aa(lp253
I12
a(I3
I6
tp254
aa(lp255
I5
aI0
aa(lp256
I23
aI0
aa(lp257
I1
aI0
aa(lp258
I24
aI0
aa(lp259
I13
aI0
aaa(lp260
(lp261
I4
aI0
aa(lp262
I0
aI0
aa(lp263
I4
aI0
aa(lp264
I23
aI0
aa(lp265
I8
aI0
aa(lp266
I5
aI0
aa(lp267
I13
aI0
aa(lp268
I3
aI0
aa(lp269
I23
aI0
aa(lp270
I12
a(I2
I11
tp271
aa(lp272
I0
aI0
aa(lp273
I0
aI0
aaa(lp274
(lp275
I8
aI0
aa(lp276
I0
aI0
aa(lp277
I0
aI0
aa(lp278
I23
aI0
aa(lp279
I0
aI0
aa(lp280
I0
aI0
aa(lp281
I6
aI0
aa(lp282
I0
aI0
aa(lp283
I23
aI0
aa(lp284
I0
aI0
aa(lp285
I0
aI0
aa(lp286
I0
aI0
aaa(lp287
(lp288
I12
a(I0
I10
tp289
aa(lp290
I8
aI0
aa(lp291
I4
aI0
aa(lp292
I23
aI0
aa(lp293
I0
aI0
aa(lp294
I0
aI0
aa(lp295
I0
aI0
aa(lp296
I0
aI0
aa(lp297
I23
aI0
aa(lp298
I0
aI0
aa(lp299
I0
aI0
aa(lp300
I0
aI0
aaa(lp301
(lp302
I11
a(I7
I1
tp303
aa(lp304
I0
aI0
aa(lp305
I0
aI0
aa(lp306
I23
aI0
aa(lp307
I24
aI0
aa(lp308
I2
aI0
aa(lp309
I2
aI0
aa(lp310
I23
aI0
aa(lp311
I24
aI0
aa(lp312
I13
aI0
aa(lp313
I13
aI0
aa(lp314
I0
aI0
aaa(lp315
(lp316
I13
aI0
aa(lp317
I13
aI0
aa(lp318
I13
aI0
aa(lp319
I23
aI0
aa(lp320
I8
aI0
aa(lp321
I0
aI0
aa(lp322
I0
aI0
aa(lp323
I12
a(I7
I10
tp324
aa(lp325
I24
aI0
aa(lp326
I5
aI0
aa(lp327
I13
aI0
aa(lp328
I0
aI0
aaa(lp329
(lp330
I8
aI0
aa(lp331
I0
aI0
aa(lp332
I8
aI0
aa(lp333
I23
aI0
aa(lp334
I0
aI0
aa(lp335
I0
aI0
aa(lp336
I0
aI0
aa(lp337
I8
aI0
aa(lp338
I23
aI0
aa(lp339
I13
aI0
aa(lp340
I13
aI0
aa(lp341
I8
aI0
aaa(lp342
(lp343
I8
aI0
aa(lp344
I0
aI0
aa(lp345
I0
aI0
aa(lp346
I23
aI0
aa(lp347
I8
aI0
aa(lp348
I3
aI0
aa(lp349
I9
aI0
aa(lp350
I7
a(I8
I11
tp351
aa(lp352
I23
aI0
aa(lp353
I7
a(I1
I6
tp354
aa(lp355
I0
aI0
aa(lp356
I9
aI0
aaa(lp357
(lp358
I8
aI0
aa(lp359
I0
aI0
aa(lp360
I0
aI0
aa(lp361
I23
aI0
aa(lp362
I1
aI0
aa(lp363
I23
aI0
aa(lp364
I24
aI0
aa(lp365
I23
aI0
aa(lp366
I1
aI0
aa(lp367
I0
aI0
aa(lp368
I0
aI0
aa(lp369
I0
aI0
aaa(lp370
(lp371
I8
aI0
aa(lp372
I0
aI0
aa(lp373
I0
aI0
aa(lp374
I23
aI0
aa(lp375
I3
aI0
aa(lp376
I0
aI0
aa(lp377
I3
aI0
aa(lp378
I9
aI0
aa(lp379
I23
aI0
aa(lp380
I8
aI0
aa(lp381
I25
aI0
aa(lp382
I25
aI0
aaa(lp383
(lp384
I8
aI0
aa(lp385
I0
aI0
aa(lp386
I9
aI0
aa(lp387
I23
aI0
aa(lp388
I8
aI0
aa(lp389
I0
aI0
aa(lp390
I0
aI0
aa(lp391
I0
aI0
aa(lp392
I2
aI0
aa(lp393
I0
aI0
aa(lp394
I13
aI0
aa(lp395
I0
aI0
aaa(lp396
(lp397
I8
aI0
aa(lp398
I8
aI0
aa(lp399
I2
aI0
aa(lp400
I23
aI0
aa(lp401
I1
aI0
aa(lp402
I24
aI0
aa(lp403
I25
aI0
aa(lp404
I25
aI0
aa(lp405
I23
aI0
aa(lp406
I1
aI0
aa(lp407
I24
aI0
aa(lp408
I2
aI0
aaa(lp409
(lp410
I3
aI0
aa(lp411
I0
aI0
aa(lp412
I3
aI0
aa(lp413
I5
aI0
aa(lp414
I8
aI0
aa(lp415
I20
aI0
aa(lp416
I8
aI0
aa(lp417
I0
aI0
aa(lp418
I8
aI0
aa(lp419
I21
aI0
aa(lp420
I0
aI0
aa(lp421
I0
aI0
aaa(lp422
(lp423
I0
aI0
aa(lp424
I8
aI0
aa(lp425
I0
aI0
aa(lp426
I8
aI0
aa(lp427
I0
aI0
aa(lp428
I8
aI0
aa(lp429
I0
aI0
aa(lp430
I2
aI0
aa(lp431
I0
aI0
aa(lp432
I1
aI0
aa(lp433
I9
aI0
aa(lp434
I12
a(I12
I10
tp435
aaaa(lp436
(lp437
(lp438
I23
aI0
aa(lp439
I1
aI0
aa(lp440
I1
aI0
aa(lp441
I1
aI0
aa(lp442
I1
aI0
aa(lp443
I1
aI0
aa(lp444
I1
aI0
aa(lp445
I1
aI0
aa(lp446
I24
aI0
aa(lp447
I0
aI0
aa(lp448
I0
aI0
aa(lp449
I23
aI0
aa(lp450
I24
aI0
aa(lp451
I25
aI0
aa(lp452
I25
aI0
aa(lp453
I23
aI0
aa(lp454
I1
aI0
aa(lp455
I1
aI0
aa(lp456
I25
aI0
aa(lp457
I23
aI0
aa(lp458
I1
aI0
aa(lp459
I1
aI0
aa(lp460
I1
aI0
aa(lp461
I1
aI0
aa(lp462
I1
aI0
aa(lp463
I24
aI0
aa(lp464
I25
aI0
aa(lp465
I23
aI0
aa(lp466
I24
aI0
aa(lp467
I23
aI0
aaa(lp468
(lp469
I14
aI0
aa(lp470
I5
aI0
aa(lp471
I13
aI0
aa(lp472
I0
aI0
aa(lp473
I0
aI0
aa(lp474
I0
aI0
aa(lp475
I0
aI0
aa(lp476
I0
aI0
aa(lp477
I0
aI0
aa(lp478
I0
aI0
aa(lp479
I6
aI0
aa(lp480
I23
aI0
aa(lp481
I0
aI0
aa(lp482
I25
aI0
aa(lp483
I25
aI0
aa(lp484
I0
aI0
aa(lp485
I0
aI0
aa(lp486
I12
a(I9
I11
tp487
aa(lp488
I23
aI0
aa(lp489
I22
aI0
aa(lp490
I22
aI0
aa(lp491
I8
aI0
aa(lp492
I22
aI0
aa(lp493
I8
aI0
aa(lp494
I14
aI0
aa(lp495
I14
aI0
aa(lp496
I8
aI0
aa(lp497
I12
a(I2
I28
tp498
aa(lp499
I16
aI0
aa(lp500
I23
aI0
aaa(lp501
(lp502
I23
aI0
aa(lp503
I1
aI0
aa(lp504
I1
aI0
aa(lp505
I8
aI0
aa(lp506
I23
aI0
aa(lp507
I1
aI0
aa(lp508
I0
aI0
aa(lp509
I8
aI0
aa(lp510
I0
aI0
aa(lp511
I8
aI0
aa(lp512
I5
aI0
aa(lp513
I13
aI0
aa(lp514
I2
aI0
aa(lp515
I0
aI0
aa(lp516
I16
aI0
aa(lp517
I0
aI0
aa(lp518
I0
aI0
aa(lp519
I9
aI0
aa(lp520
I23
aI0
aa(lp521
I14
aI0
aa(lp522
I14
aI0
aa(lp523
I14
aI0
aa(lp524
I22
aI0
aa(lp525
I22
aI0
aa(lp526
I22
aI0
aa(lp527
I22
aI0
aa(lp528
I14
aI0
aa(lp529
I14
aI0
aa(lp530
I13
aI0
aa(lp531
I23
aI0
aaa(lp532
(lp533
I23
aI0
aa(lp534
I16
aI0
aa(lp535
I0
aI0
aa(lp536
I0
aI0
aa(lp537
I4
aI0
aa(lp538
I23
aI0
aa(lp539
I0
aI0
aa(lp540
I0
aI0
aa(lp541
I0
aI0
aa(lp542
I0
aI0
aa(lp543
I8
aI0
aa(lp544
I23
aI0
aa(lp545
I0
aI0
aa(lp546
I20
aI0
aa(lp547
I21
aI0
aa(lp548
I0
aI0
aa(lp549
I0
aI0
aa(lp550
I14
aI0
aa(lp551
I23
aI0
aa(lp552
I14
aI0
aa(lp553
I22
aI0
aa(lp554
I14
aI0
aa(lp555
I14
aI0
aa(lp556
I8
aI0
aa(lp557
I14
aI0
aa(lp558
I8
aI0
aa(lp559
I22
aI0
aa(lp560
I8
aI0
aa(lp561
I22
aI0
aa(lp562
I23
aI0
aaa(lp563
(lp564
I23
aI0
aa(lp565
I13
aI0
aa(lp566
I0
aI0
aa(lp567
I11
a(I4
I1
tp568
aa(lp569
I5
aI0
aa(lp570
I13
aI0
aa(lp571
I0
aI0
aa(lp572
I9
aI0
aa(lp573
I9
aI0
aa(lp574
I0
aI0
aa(lp575
I8
aI0
aa(lp576
I23
aI0
aa(lp577
I0
aI0
aa(lp578
I0
aI0
aa(lp579
I20
aI0
aa(lp580
I21
aI0
aa(lp581
I14
aI0
aa(lp582
I14
aI0
aa(lp583
I23
aI0
aa(lp584
I22
aI0
aa(lp585
I8
aI0
aa(lp586
I22
aI0
aa(lp587
I22
aI0
aa(lp588
I22
aI0
aa(lp589
I25
aI0
aa(lp590
I14
aI0
aa(lp591
I22
aI0
aa(lp592
I14
aI0
aa(lp593
I14
aI0
aa(lp594
I23
aI0
aaa(lp595
(lp596
I23
aI0
aa(lp597
I0
aI0
aa(lp598
I0
aI0
aa(lp599
I0
aI0
aa(lp600
I5
aI0
aa(lp601
I23
aI0
aa(lp602
I0
aI0
aa(lp603
I9
aI0
aa(lp604
I0
aI0
aa(lp605
I8
aI0
aa(lp606
I8
aI0
aa(lp607
I23
aI0
aa(lp608
I0
aI0
aa(lp609
I20
aI0
aa(lp610
I21
aI0
aa(lp611
I0
aI0
aa(lp612
I0
aI0
aa(lp613
I14
aI0
aa(lp614
I23
aI0
aa(lp615
I8
aI0
aa(lp616
I14
aI0
aa(lp617
I14
aI0
aa(lp618
I8
aI0
aa(lp619
I22
aI0
aa(lp620
I8
aI0
aa(lp621
I22
aI0
aa(lp622
I8
aI0
aa(lp623
I8
aI0
aa(lp624
I8
aI0
aa(lp625
I23
aI0
aaa(lp626
(lp627
I23
aI0
aa(lp628
I0
aI0
aa(lp629
I8
aI0
aa(lp630
I0
aI0
aa(lp631
I0
aI0
aa(lp632
I23
aI0
aa(lp633
I8
aI0
aa(lp634
I0
aI0
aa(lp635
I0
aI0
aa(lp636
I8
aI0
aa(lp637
I0
aI0
aa(lp638
I23
aI0
aa(lp639
I1
aI0
aa(lp640
I23
aI0
aa(lp641
I18
aI0
aa(lp642
I0
aI0
aa(lp643
I0
aI0
aa(lp644
I0
aI0
aa(lp645
I23
aI0
aa(lp646
I14
aI0
aa(lp647
I14
aI0
aa(lp648
I22
aI0
aa(lp649
I22
aI0
aa(lp650
I25
aI0
aa(lp651
I14
aI0
aa(lp652
I14
aI0
aa(lp653
I14
aI0
aa(lp654
I14
aI0
aa(lp655
I8
aI0
aa(lp656
I23
aI0
aaa(lp657
(lp658
I23
aI0
aa(lp659
I0
aI0
aa(lp660
I0
aI0
aa(lp661
I0
aI0
aa(lp662
I0
aI0
aa(lp663
I23
aI0
aa(lp664
I0
aI0
aa(lp665
I0
aI0
aa(lp666
I0
aI0
aa(lp667
I0
aI0
aa(lp668
I9
aI0
aa(lp669
I13
aI0
aa(lp670
I7
a(I10
I12
tp671
aa(lp672
I0
aI0
aa(lp673
I23
aI0
aa(lp674
I22
aI0
aa(lp675
I20
aI0
aa(lp676
I0
aI0
aa(lp677
I21
aI0
aa(lp678
I22
aI0
aa(lp679
I22
aI0
aa(lp680
I8
aI0
aa(lp681
I14
aI0
aa(lp682
I14
aI0
aa(lp683
I8
aI0
aa(lp684
I9
aI0
aa(lp685
I14
aI0
aa(lp686
I14
aI0
aa(lp687
I8
aI0
aa(lp688
I23
aI0
aaa(lp689
(lp690
I23
aI0
aa(lp691
I0
aI0
aa(lp692
I0
aI0
aa(lp693
I8
aI0
aa(lp694
I5
aI0
aa(lp695
I23
aI0
aa(lp696
I0
aI0
aa(lp697
I8
aI0
aa(lp698
I0
aI0
aa(lp699
I9
aI0
aa(lp700
I0
aI0
aa(lp701
I13
aI0
aa(lp702
I0
aI0
aa(lp703
I8
aI0
aa(lp704
I23
aI0
aa(lp705
I0
aI0
aa(lp706
I14
aI0
aa(lp707
I22
aI0
aa(lp708
I21
aI0
aa(lp709
I22
aI0
aa(lp710
I14
aI0
aa(lp711
I22
aI0
aa(lp712
I14
aI0
aa(lp713
I14
aI0
aa(lp714
I14
aI0
aa(lp715
I8
aI0
aa(lp716
I14
aI0
aa(lp717
I14
aI0
aa(lp718
I8
aI0
aa(lp719
I23
aI0
aaa(lp720
(lp721
I23
aI0
aa(lp722
I0
aI0
aa(lp723
I0
aI0
aa(lp724
I0
aI0
aa(lp725
I5
aI0
aa(lp726
I13
aI0
aa(lp727
I0
aI0
aa(lp728
I0
aI0
aa(lp729
I0
aI0
aa(lp730
I8
aI0
aa(lp731
I8
aI0
aa(lp732
I13
aI0
aa(lp733
I0
aI0
aa(lp734
I0
aI0
aa(lp735
I23
aI0
aa(lp736
I0
aI0
aa(lp737
I0
aI0
aa(lp738
I0
aI0
aa(lp739
I23
aI0
aa(lp740
I8
aI0
aa(lp741
I14
aI0
aa(lp742
I14
aI0
aa(lp743
I14
aI0
aa(lp744
I14
aI0
aa(lp745
I22
aI0
aa(lp746
I22
aI0
aa(lp747
I8
aI0
aa(lp748
I8
aI0
aa(lp749
I8
aI0
aa(lp750
I23
aI0
aaa(lp751
(lp752
I23
aI0
aa(lp753
I0
aI0
aa(lp754
I8
aI0
aa(lp755
I0
aI0
aa(lp756
I5
aI0
aa(lp757
I23
aI0
aa(lp758
I0
aI0
aa(lp759
I0
aI0
aa(lp760
I9
aI0
aa(lp761
I0
aI0
aa(lp762
I8
aI0
aa(lp763
I23
aI0
aa(lp764
I2
aI0
aa(lp765
I0
aI0
aa(lp766
I23
aI0
aa(lp767
I0
aI0
aa(lp768
I22
aI0
aa(lp769
I0
aI0
aa(lp770
I23
aI0
aa(lp771
I8
aI0
aa(lp772
I8
aI0
aa(lp773
I8
aI0
aa(lp774
I14
aI0
aa(lp775
I14
aI0
aa(lp776
I22
aI0
aa(lp777
I14
aI0
aa(lp778
I14
aI0
aa(lp779
I14
aI0
aa(lp780
I8
aI0
aa(lp781
I23
aI0
aaa(lp782
(lp783
I23
aI0
aa(lp784
I0
aI0
aa(lp785
I0
aI0
aa(lp786
I0
aI0
aa(lp787
I8
aI0
aa(lp788
I23
aI0
aa(lp789
I8
aI0
aa(lp790
I0
aI0
aa(lp791
I0
aI0
aa(lp792
I0
aI0
aa(lp793
I8
aI0
aa(lp794
I23
aI0
aa(lp795
I0
aI0
aa(lp796
I0
aI0
aa(lp797
I23
aI0
aa(lp798
I0
aI0
aa(lp799
I20
aI0
aa(lp800
I9
aI0
aa(lp801
I23
aI0
aa(lp802
I14
aI0
aa(lp803
I5
aI0
aa(lp804
I8
aI0
aa(lp805
I8
aI0
aa(lp806
I8
aI0
aa(lp807
I8
aI0
aa(lp808
I14
aI0
aa(lp809
I8
aI0
aa(lp810
I14
aI0
aa(lp811
I8
aI0
aa(lp812
I23
aI0
aaa(lp813
(lp814
I23
aI0
aa(lp815
I25
aI0
aa(lp816
I25
aI0
aa(lp817
I25
aI0
aa(lp818
I25
aI0
aa(lp819
I23
aI0
aa(lp820
I0
aI0
aa(lp821
I0
aI0
aa(lp822
I8
aI0
aa(lp823
I0
aI0
aa(lp824
I0
aI0
aa(lp825
I23
aI0
aa(lp826
I0
aI0
aa(lp827
I0
aI0
aa(lp828
I23
aI0
aa(lp829
I0
aI0
aa(lp830
I0
aI0
aa(lp831
I23
aI0
aa(lp832
I23
aI0
aa(lp833
I14
aI0
aa(lp834
I14
aI0
aa(lp835
I14
aI0
aa(lp836
I14
aI0
aa(lp837
I14
aI0
aa(lp838
I14
aI0
aa(lp839
I14
aI0
aa(lp840
I8
aI0
aa(lp841
I14
aI0
aa(lp842
I8
aI0
aa(lp843
I23
aI0
aaa(lp844
(lp845
I25
aI0
aa(lp846
I3
aI0
aa(lp847
I0
aI0
aa(lp848
I0
aI0
aa(lp849
I5
aI0
aa(lp850
I13
aI0
aa(lp851
I9
aI0
aa(lp852
I0
aI0
aa(lp853
I0
aI0
aa(lp854
I0
aI0
aa(lp855
I9
aI0
aa(lp856
I8
aI0
aa(lp857
I25
aI0
aa(lp858
I0
aI0
aa(lp859
I0
aI0
aa(lp860
I7
a(I4
I2
tp861
aa(lp862
I2
aI0
aa(lp863
I0
aI0
aa(lp864
I23
aI0
aa(lp865
I1
aI0
aa(lp866
I1
aI0
aa(lp867
I1
aI0
aa(lp868
I1
aI0
aa(lp869
I1
aI0
aa(lp870
I1
aI0
aa(lp871
I1
aI0
aa(lp872
I1
aI0
aa(lp873
I24
aI0
aa(lp874
I0
aI0
aa(lp875
I23
aI0
aaa(lp876
(lp877
I12
a(I1
I2
tp878
aa(lp879
I0
aI0
aa(lp880
I3
aI0
aa(lp881
I0
aI0
aa(lp882
I0
aI0
aa(lp883
I23
aI0
aa(lp884
I0
aI0
aa(lp885
I8
aI0
aa(lp886
I8
aI0
aa(lp887
I0
aI0
aa(lp888
I9
aI0
aa(lp889
I25
aI0
aa(lp890
I12
a(I4
I5
tp891
aa(lp892
I0
aI0
aa(lp893
I12
a(I13
I5
tp894
aa(lp895
I23
aI0
aa(lp896
I0
aI0
aa(lp897
I0
aI0
aa(lp898
I0
aI0
aa(lp899
I0
aI0
aa(lp900
I0
aI0
aa(lp901
I0
aI0
aa(lp902
I0
aI0
aa(lp903
I0
aI0
aa(lp904
I0
aI0
aa(lp905
I0
aI0
aa(lp906
I0
aI0
aa(lp907
I0
aI0
aa(lp908
I0
aI0
aa(lp909
I23
aI0
aaa(lp910
(lp911
I25
aI0
aa(lp912
I25
aI0
aa(lp913
I25
aI0
aa(lp914
I25
aI0
aa(lp915
I25
aI0
aa(lp916
I23
aI0
aa(lp917
I1
aI0
aa(lp918
I24
aI0
aa(lp919
I12
a(I2
I11
tp920
aa(lp921
I23
aI0
aa(lp922
I25
aI0
aa(lp923
I23
aI0
aa(lp924
I25
aI0
aa(lp925
I12
a(I9
I5
tp926
aa(lp927
I23
aI0
aa(lp928
I25
aI0
aa(lp929
I12
a(I8
I11
tp930
aa(lp931
I23
aI0
aa(lp932
I1
aI0
aa(lp933
I1
aI0
aa(lp934
I1
aI0
aa(lp935
I1
aI0
aa(lp936
I1
aI0
aa(lp937
I1
aI0
aa(lp938
I1
aI0
aa(lp939
I24
aI0
aa(lp940
I25
aI0
aa(lp941
I23
aI0
aa(lp942
I24
aI0
aa(lp943
I23
aI0
aaaa(lp944
(lp945
(lp946
I24
aI0
aa(lp947
I24
aI0
aa(lp948
I24
aI0
aa(lp949
I12
a(I11
I1
tp950
aa(lp951
I13
aI0
aa(lp952
I13
aI0
aa(lp953
I12
a(I7
I6
tp954
aa(lp955
I13
aI0
aa(lp956
I0
aI0
aa(lp957
I0
aI0
aa(lp958
I9
aI0
aa(lp959
I9
aI0
aaa(lp960
(lp961
I24
aI0
aa(lp962
I8
aI0
aa(lp963
I0
aI0
aa(lp964
I0
aI0
aa(lp965
I0
aI0
aa(lp966
I0
aI0
aa(lp967
I0
aI0
aa(lp968
I0
aI0
aa(lp969
I0
aI0
aa(lp970
I13
aI0
aa(lp971
I2
aI0
aa(lp972
I9
aI0
aaa(lp973
(lp974
I24
aI0
aa(lp975
I3
aI0
aa(lp976
I8
aI0
aa(lp977
I0
aI0
aa(lp978
I24
aI0
aa(lp979
I13
aI0
aa(lp980
I0
aI0
aa(lp981
I0
aI0
aa(lp982
I0
aI0
aa(lp983
I0
aI0
aa(lp984
I0
aI0
aa(lp985
I0
aI0
aaa(lp986
(lp987
I24
aI0
aa(lp988
I8
aI0
aa(lp989
I0
aI0
aa(lp990
I0
aI0
aa(lp991
I24
aI0
aa(lp992
I0
aI0
aa(lp993
I2
aI0
aa(lp994
I0
aI0
aa(lp995
I0
aI0
aa(lp996
I0
aI0
aa(lp997
I0
aI0
aa(lp998
I0
aI0
aaa(lp999
(lp1000
I24
aI0
aa(lp1001
I3
aI0
aa(lp1002
I8
aI0
aa(lp1003
I2
aI0
aa(lp1004
I24
aI0
aa(lp1005
I0
aI0
aa(lp1006
I13
aI0
aa(lp1007
I0
aI0
aa(lp1008
I0
aI0
aa(lp1009
I0
aI0
aa(lp1010
I0
aI0
aa(lp1011
I0
aI0
aaa(lp1012
(lp1013
I24
aI0
aa(lp1014
I8
aI0
aa(lp1015
I14
aI0
aa(lp1016
I0
aI0
aa(lp1017
I24
aI0
aa(lp1018
I0
aI0
aa(lp1019
I0
aI0
aa(lp1020
I0
aI0
aa(lp1021
I0
aI0
aa(lp1022
I0
aI0
aa(lp1023
I13
aI0
aa(lp1024
I2
aI0
aaa(lp1025
(lp1026
I24
aI0
aa(lp1027
I8
aI0
aa(lp1028
I0
aI0
aa(lp1029
I2
aI0
aa(lp1030
I24
aI0
aa(lp1031
I2
aI0
aa(lp1032
I0
aI0
aa(lp1033
I0
aI0
aa(lp1034
I13
aI0
aa(lp1035
I0
aI0
aa(lp1036
I0
aI0
aa(lp1037
I0
aI0
aaa(lp1038
(lp1039
I24
aI0
aa(lp1040
I14
aI0
aa(lp1041
I8
aI0
aa(lp1042
I0
aI0
aa(lp1043
I24
aI0
aa(lp1044
I13
aI0
aa(lp1045
I13
aI0
aa(lp1046
I13
aI0
aa(lp1047
I13
aI0
aa(lp1048
I23
aI0
aa(lp1049
I1
aI0
aa(lp1050
I24
aI0
aaa(lp1051
(lp1052
I24
aI0
aa(lp1053
I14
aI0
aa(lp1054
I8
aI0
aa(lp1055
I0
aI0
aa(lp1056
I24
aI0
aa(lp1057
I0
aI0
aa(lp1058
I8
aI0
aa(lp1059
I8
aI0
aa(lp1060
I8
aI0
aa(lp1061
I23
aI0
aa(lp1062
I12
a(I13
I7
tp1063
aa(lp1064
I24
aI0
aaa(lp1065
(lp1066
I24
aI0
aa(lp1067
I8
aI0
aa(lp1068
I0
aI0
aa(lp1069
I0
aI0
aa(lp1070
I24
aI0
aa(lp1071
I0
aI0
aa(lp1072
I14
aI0
aa(lp1073
I14
aI0
aa(lp1074
I8
aI0
aa(lp1075
I23
aI0
aa(lp1076
I4
aI0
aa(lp1077
I24
aI0
aaa(lp1078
(lp1079
I24
aI0
aa(lp1080
I8
aI0
aa(lp1081
I0
aI0
aa(lp1082
I0
aI0
aa(lp1083
I24
aI0
aa(lp1084
I0
aI0
aa(lp1085
I14
aI0
aa(lp1086
I14
aI0
aa(lp1087
I8
aI0
aa(lp1088
I23
aI0
aa(lp1089
I0
aI0
aa(lp1090
I24
aI0
aaa(lp1091
(lp1092
I24
aI0
aa(lp1093
I13
aI0
aa(lp1094
I0
aI0
aa(lp1095
I0
aI0
aa(lp1096
I24
aI0
aa(lp1097
I0
aI0
aa(lp1098
I8
aI0
aa(lp1099
I0
aI0
aa(lp1100
I8
aI0
aa(lp1101
I23
aI0
aa(lp1102
I0
aI0
aa(lp1103
I24
aI0
aaa(lp1104
(lp1105
I24
aI0
aa(lp1106
I18
aI0
aa(lp1107
I24
aI0
aa(lp1108
I4
aI0
aa(lp1109
I24
aI0
aa(lp1110
I14
aI0
aa(lp1111
I14
aI0
aa(lp1112
I16
aI0
aa(lp1113
I0
aI0
aa(lp1114
I23
aI0
aa(lp1115
I13
aI0
aa(lp1116
I24
aI0
aaa(lp1117
(lp1118
I25
aI0
aa(lp1119
I25
aI0
aa(lp1120
I25
aI0
aa(lp1121
I25
aI0
aa(lp1122
I25
aI0
aa(lp1123
I25
aI0
aa(lp1124
I25
aI0
aa(lp1125
I13
aI0
aa(lp1126
I0
aI0
aa(lp1127
I8
aI0
aa(lp1128
I8
aI0
aa(lp1129
I25
aI0
aaa(lp1130
(lp1131
I25
aI0
aa(lp1132
I0
aI0
aa(lp1133
I0
aI0
aa(lp1134
I0
aI0
aa(lp1135
I0
aI0
aa(lp1136
I0
aI0
aa(lp1137
I0
aI0
aa(lp1138
I0
aI0
aa(lp1139
I0
aI0
aa(lp1140
I8
aI0
aa(lp1141
I8
aI0
aa(lp1142
I25
aI0
aaa(lp1143
(lp1144
I25
aI0
aa(lp1145
I0
aI0
aa(lp1146
I25
aI0
aa(lp1147
I25
aI0
aa(lp1148
I25
aI0
aa(lp1149
I25
aI0
aa(lp1150
I25
aI0
aa(lp1151
I0
aI0
aa(lp1152
I25
aI0
aa(lp1153
I25
aI0
aa(lp1154
I25
aI0
aa(lp1155
I25
aI0
aaa(lp1156
(lp1157
I25
aI0
aa(lp1158
I0
aI0
aa(lp1159
I0
aI0
aa(lp1160
I0
aI0
aa(lp1161
I0
aI0
aa(lp1162
I0
aI0
aa(lp1163
I0
aI0
aa(lp1164
I0
aI0
aa(lp1165
I0
aI0
aa(lp1166
I0
aI0
aa(lp1167
I0
aI0
aa(lp1168
I25
aI0
aaa(lp1169
(lp1170
I25
aI0
aa(lp1171
I25
aI0
aa(lp1172
I25
aI0
aa(lp1173
I25
aI0
aa(lp1174
I25
aI0
aa(lp1175
I25
aI0
aa(lp1176
I25
aI0
aa(lp1177
I8
aI0
aa(lp1178
I25
aI0
aa(lp1179
I25
aI0
aa(lp1180
I8
aI0
aa(lp1181
I25
aI0
aaa(lp1182
(lp1183
I25
aI0
aa(lp1184
I12
a(I12
I10
tp1185
aa(lp1186
I14
aI0
aa(lp1187
I14
aI0
aa(lp1188
I14
aI0
aa(lp1189
I25
aI0
aa(lp1190
I8
aI0
aa(lp1191
I0
aI0
aa(lp1192
I0
aI0
aa(lp1193
I25
aI0
aa(lp1194
I0
aI0
aa(lp1195
I25
aI0
aaa(lp1196
(lp1197
I25
aI0
aa(lp1198
I14
aI0
aa(lp1199
I14
aI0
aa(lp1200
I14
aI0
aa(lp1201
I8
aI0
aa(lp1202
I25
aI0
aa(lp1203
I0
aI0
aa(lp1204
I0
aI0
aa(lp1205
I25
aI0
aa(lp1206
I25
aI0
aa(lp1207
I0
aI0
aa(lp1208
I25
aI0
aaa(lp1209
(lp1210
I25
aI0
aa(lp1211
I14
aI0
aa(lp1212
I14
aI0
aa(lp1213
I14
aI0
aa(lp1214
I8
aI0
aa(lp1215
I9
aI0
aa(lp1216
I0
aI0
aa(lp1217
I0
aI0
aa(lp1218
I0
aI0
aa(lp1219
I0
aI0
aa(lp1220
I0
aI0
aa(lp1221
I24
aI0
aaa(lp1222
(lp1223
I25
aI0
aa(lp1224
I14
aI0
aa(lp1225
I14
aI0
aa(lp1226
I14
aI0
aa(lp1227
I8
aI0
aa(lp1228
I25
aI0
aa(lp1229
I0
aI0
aa(lp1230
I0
aI0
aa(lp1231
I25
aI0
aa(lp1232
I25
aI0
aa(lp1233
I0
aI0
aa(lp1234
I24
aI0
aaa(lp1235
(lp1236
I25
aI0
aa(lp1237
I14
aI0
aa(lp1238
I14
aI0
aa(lp1239
I14
aI0
aa(lp1240
I14
aI0
aa(lp1241
I25
aI0
aa(lp1242
I0
aI0
aa(lp1243
I0
aI0
aa(lp1244
I0
aI0
aa(lp1245
I25
aI0
aa(lp1246
I0
aI0
aa(lp1247
I24
aI0
aaa(lp1248
(lp1249
I25
aI0
aa(lp1250
I25
aI0
aa(lp1251
I25
aI0
aa(lp1252
I25
aI0
aa(lp1253
I25
aI0
aa(lp1254
I25
aI0
aa(lp1255
I2
aI0
aa(lp1256
I0
aI0
aa(lp1257
I0
aI0
aa(lp1258
I12
a(I24
I8
tp1259
aa(lp1260
I0
aI0
aa(lp1261
I24
aI0
aaa(lp1262
(lp1263
I23
aI0
aa(lp1264
I6
aI0
aa(lp1265
I23
aI0
aa(lp1266
I9
aI0
aa(lp1267
I0
aI0
aa(lp1268
I20
aI0
aa(lp1269
I0
aI0
aa(lp1270
I0
aI0
aa(lp1271
I13
aI0
aa(lp1272
I0
aI0
aa(lp1273
I0
aI0
aa(lp1274
I24
aI0
aaa(lp1275
(lp1276
I24
aI0
aa(lp1277
I0
aI0
aa(lp1278
I24
aI0
aa(lp1279
I0
aI0
aa(lp1280
I0
aI0
aa(lp1281
I3
aI0
aa(lp1282
I13
aI0
aa(lp1283
I0
aI0
aa(lp1284
I13
aI0
aa(lp1285
I0
aI0
aa(lp1286
I0
aI0
aa(lp1287
I24
aI0
aaa(lp1288
(lp1289
I24
aI0
aa(lp1290
I0
aI0
aa(lp1291
I24
aI0
aa(lp1292
I24
aI0
aa(lp1293
I24
aI0
aa(lp1294
I24
aI0
aa(lp1295
I23
aI0
aa(lp1296
I0
aI0
aa(lp1297
I23
aI0
aa(lp1298
I24
aI0
aa(lp1299
I24
aI0
aa(lp1300
I24
aI0
aaa(lp1301
(lp1302
I24
aI0
aa(lp1303
I0
aI0
aa(lp1304
I0
aI0
aa(lp1305
I25
aI0
aa(lp1306
I22
aI0
aa(lp1307
I0
aI0
aa(lp1308
I14
aI0
aa(lp1309
I21
aI0
aa(lp1310
I0
aI0
aa(lp1311
I0
aI0
aa(lp1312
I0
aI0
aa(lp1313
I24
aI0
aaa(lp1314
(lp1315
I24
aI0
aa(lp1316
I0
aI0
aa(lp1317
I0
aI0
aa(lp1318
I22
aI0
aa(lp1319
I22
aI0
aa(lp1320
I18
aI0
aa(lp1321
I0
aI0
aa(lp1322
I0
aI0
aa(lp1323
I0
aI0
aa(lp1324
I15
aI0
aa(lp1325
I0
aI0
aa(lp1326
I24
aI0
aaa(lp1327
(lp1328
I24
aI0
aa(lp1329
I13
aI0
aa(lp1330
I0
aI0
aa(lp1331
I0
aI0
aa(lp1332
I0
aI0
aa(lp1333
I0
aI0
aa(lp1334
I0
aI0
aa(lp1335
I0
aI0
aa(lp1336
I0
aI0
aa(lp1337
I0
aI0
aa(lp1338
I0
aI0
aa(lp1339
I24
aI0
aaa(lp1340
(lp1341
I24
aI0
aa(lp1342
I18
aI0
aa(lp1343
I12
a(I29
I1
tp1344
aa(lp1345
I25
aI0
aa(lp1346
I22
aI0
aa(lp1347
I17
aI0
aa(lp1348
I0
aI0
aa(lp1349
I0
aI0
aa(lp1350
I0
aI0
aa(lp1351
I0
aI0
aa(lp1352
I0
aI0
aa(lp1353
I24
aI0
aaa(lp1354
(lp1355
I24
aI0
aa(lp1356
I24
aI0
aa(lp1357
I24
aI0
aa(lp1358
I24
aI0
aa(lp1359
I24
aI0
aa(lp1360
I24
aI0
aa(lp1361
I24
aI0
aa(lp1362
I24
aI0
aa(lp1363
I24
aI0
aa(lp1364
I24
aI0
aa(lp1365
I24
aI0
aa(lp1366
I24
aI0
aaaa(lp1367
(lp1368
(lp1369
I13
aI0
aa(lp1370
I0
aI0
aa(lp1371
I4
aI0
aa(lp1372
I8
aI0
aa(lp1373
I13
aI0
aa(lp1374
I7
a(I16
I15
tp1375
aa(lp1376
I13
aI0
aa(lp1377
I7
a(I0
I3
tp1378
aa(lp1379
I13
aI0
aa(lp1380
I3
aI0
aa(lp1381
I14
aI0
aa(lp1382
I8
aI0
aa(lp1383
I0
aI0
aa(lp1384
I3
aI0
aa(lp1385
I13
aI0
aa(lp1386
I21
aI0
aa(lp1387
I13
aI0
aa(lp1388
I6
aI0
aa(lp1389
I13
aI0
aa(lp1390
I0
aI0
aa(lp1391
I0
aI0
aa(lp1392
I0
aI0
aa(lp1393
I0
aI0
aa(lp1394
I16
aI0
aa(lp1395
I9
aI0
aa(lp1396
I0
aI0
aa(lp1397
I25
aI0
aa(lp1398
I11
a(I10
I28
tp1399
aa(lp1400
I25
aI0
aa(lp1401
I0
aI0
aa(lp1402
I0
aI0
aa(lp1403
I0
aI0
aaa(lp1404
(lp1405
I0
aI0
aa(lp1406
I0
aI0
aa(lp1407
I13
aI0
aa(lp1408
I0
aI0
aa(lp1409
I13
aI0
aa(lp1410
I0
aI0
aa(lp1411
I0
aI0
aa(lp1412
I0
aI0
aa(lp1413
I0
aI0
aa(lp1414
I13
aI0
aa(lp1415
I13
aI0
aa(lp1416
I0
aI0
aa(lp1417
I13
aI0
aa(lp1418
I0
aI0
aa(lp1419
I0
aI0
aa(lp1420
I0
aI0
aa(lp1421
I13
aI0
aa(lp1422
I13
aI0
aa(lp1423
I13
aI0
aa(lp1424
I0
aI0
aa(lp1425
I13
aI0
aa(lp1426
I13
aI0
aa(lp1427
I0
aI0
aa(lp1428
I0
aI0
aa(lp1429
I0
aI0
aa(lp1430
I0
aI0
aa(lp1431
I18
aI0
aa(lp1432
I0
aI0
aa(lp1433
I18
aI0
aa(lp1434
I0
aI0
aa(lp1435
I16
aI0
aa(lp1436
I0
aI0
aaa(lp1437
(lp1438
I4
aI0
aa(lp1439
I13
aI0
aa(lp1440
I0
aI0
aa(lp1441
I4
aI0
aa(lp1442
I13
aI0
aa(lp1443
I13
aI0
aa(lp1444
I0
aI0
aa(lp1445
I13
aI0
aa(lp1446
I14
aI0
aa(lp1447
I8
aI0
aa(lp1448
I0
aI0
aa(lp1449
I0
aI0
aa(lp1450
I0
aI0
aa(lp1451
I8
aI0
aa(lp1452
I13
aI0
aa(lp1453
I14
aI0
aa(lp1454
I8
aI0
aa(lp1455
I0
aI0
aa(lp1456
I13
aI0
aa(lp1457
I0
aI0
aa(lp1458
I16
aI0
aa(lp1459
I0
aI0
aa(lp1460
I0
aI0
aa(lp1461
I0
aI0
aa(lp1462
I0
aI0
aa(lp1463
I0
aI0
aa(lp1464
I0
aI0
aa(lp1465
I0
aI0
aa(lp1466
I0
aI0
aa(lp1467
I0
aI0
aa(lp1468
I0
aI0
aa(lp1469
I0
aI0
aaa(lp1470
(lp1471
I0
aI0
aa(lp1472
I0
aI0
aa(lp1473
I0
aI0
aa(lp1474
I0
aI0
aa(lp1475
I0
aI0
aa(lp1476
I13
aI0
aa(lp1477
I0
aI0
aa(lp1478
I13
aI0
aa(lp1479
I0
aI0
aa(lp1480
I13
aI0
aa(lp1481
I0
aI0
aa(lp1482
I0
aI0
aa(lp1483
I14
aI0
aa(lp1484
I14
aI0
aa(lp1485
I13
aI0
aa(lp1486
I0
aI0
aa(lp1487
I13
aI0
aa(lp1488
I3
aI0
aa(lp1489
I13
aI0
aa(lp1490
I0
aI0
aa(lp1491
I0
aI0
aa(lp1492
I0
aI0
aa(lp1493
I0
aI0
aa(lp1494
I0
aI0
aa(lp1495
I3
aI0
aa(lp1496
I0
aI0
aa(lp1497
I13
aI0
aa(lp1498
I2
aI0
aa(lp1499
I13
aI0
aa(lp1500
I0
aI0
aa(lp1501
I15
aI0
aa(lp1502
I0
aI0
aaa(lp1503
(lp1504
I4
aI0
aa(lp1505
I13
aI0
aa(lp1506
I0
aI0
aa(lp1507
I13
aI0
aa(lp1508
I4
aI0
aa(lp1509
I13
aI0
aa(lp1510
I0
aI0
aa(lp1511
I0
aI0
aa(lp1512
I0
aI0
aa(lp1513
I13
aI0
aa(lp1514
I0
aI0
aa(lp1515
I13
aI0
aa(lp1516
I13
aI0
aa(lp1517
I13
aI0
aa(lp1518
I0
aI0
aa(lp1519
I0
aI0
aa(lp1520
I13
aI0
aa(lp1521
I13
aI0
aa(lp1522
I13
aI0
aa(lp1523
I0
aI0
aa(lp1524
I0
aI0
aa(lp1525
I0
aI0
aa(lp1526
I0
aI0
aa(lp1527
I18
aI0
aa(lp1528
I0
aI0
aa(lp1529
I18
aI0
aa(lp1530
I13
aI0
aa(lp1531
I0
aI0
aa(lp1532
I0
aI0
aa(lp1533
I0
aI0
aa(lp1534
I0
aI0
aa(lp1535
I0
aI0
aaa(lp1536
(lp1537
I0
aI0
aa(lp1538
I13
aI0
aa(lp1539
I0
aI0
aa(lp1540
I13
aI0
aa(lp1541
I0
aI0
aa(lp1542
I13
aI0
aa(lp1543
I0
aI0
aa(lp1544
I13
aI0
aa(lp1545
I13
aI0
aa(lp1546
I13
aI0
aa(lp1547
I0
aI0
aa(lp1548
I13
aI0
aa(lp1549
I0
aI0
aa(lp1550
I0
aI0
aa(lp1551
I14
aI0
aa(lp1552
I8
aI0
aa(lp1553
I0
aI0
aa(lp1554
I0
aI0
aa(lp1555
I13
aI0
aa(lp1556
I0
aI0
aa(lp1557
I18
aI0
aa(lp1558
I0
aI0
aa(lp1559
I0
aI0
aa(lp1560
I0
aI0
aa(lp1561
I0
aI0
aa(lp1562
I0
aI0
aa(lp1563
I0
aI0
aa(lp1564
I17
aI0
aa(lp1565
I0
aI0
aa(lp1566
I0
aI0
aa(lp1567
I16
aI0
aa(lp1568
I0
aI0
aaa(lp1569
(lp1570
I0
aI0
aa(lp1571
I13
aI0
aa(lp1572
I0
aI0
aa(lp1573
I4
aI0
aa(lp1574
I0
aI0
aa(lp1575
I13
aI0
aa(lp1576
I0
aI0
aa(lp1577
I13
aI0
aa(lp1578
I14
aI0
aa(lp1579
I8
aI0
aa(lp1580
I0
aI0
aa(lp1581
I0
aI0
aa(lp1582
I0
aI0
aa(lp1583
I13
aI0
aa(lp1584
I13
aI0
aa(lp1585
I14
aI0
aa(lp1586
I13
aI0
aa(lp1587
I0
aI0
aa(lp1588
I0
aI0
aa(lp1589
I0
aI0
aa(lp1590
I0
aI0
aa(lp1591
I17
aI0
aa(lp1592
I0
aI0
aa(lp1593
I0
aI0
aa(lp1594
I16
aI0
aa(lp1595
I0
aI0
aa(lp1596
I0
aI0
aa(lp1597
I0
aI0
aa(lp1598
I0
aI0
aa(lp1599
I0
aI0
aa(lp1600
I0
aI0
aa(lp1601
I0
aI0
aaa(lp1602
(lp1603
I0
aI0
aa(lp1604
I4
aI0
aa(lp1605
I0
aI0
aa(lp1606
I13
aI0
aa(lp1607
I0
aI0
aa(lp1608
I13
aI0
aa(lp1609
I0
aI0
aa(lp1610
I13
aI0
aa(lp1611
I3
aI0
aa(lp1612
I13
aI0
aa(lp1613
I13
aI0
aa(lp1614
I13
aI0
aa(lp1615
I0
aI0
aa(lp1616
I13
aI0
aa(lp1617
I0
aI0
aa(lp1618
I0
aI0
aa(lp1619
I13
aI0
aa(lp1620
I13
aI0
aa(lp1621
I13
aI0
aa(lp1622
I0
aI0
aa(lp1623
I16
aI0
aa(lp1624
I0
aI0
aa(lp1625
I0
aI0
aa(lp1626
I3
aI0
aa(lp1627
I0
aI0
aa(lp1628
I0
aI0
aa(lp1629
I16
aI0
aa(lp1630
I13
aI0
aa(lp1631
I4
aI0
aa(lp1632
I0
aI0
aa(lp1633
I0
aI0
aa(lp1634
I0
aI0
aaa(lp1635
(lp1636
I0
aI0
aa(lp1637
I13
aI0
aa(lp1638
I0
aI0
aa(lp1639
I4
aI0
aa(lp1640
I0
aI0
aa(lp1641
I13
aI0
aa(lp1642
I0
aI0
aa(lp1643
I13
aI0
aa(lp1644
I0
aI0
aa(lp1645
I8
aI0
aa(lp1646
I0
aI0
aa(lp1647
I0
aI0
aa(lp1648
I3
aI0
aa(lp1649
I13
aI0
aa(lp1650
I13
aI0
aa(lp1651
I14
aI0
aa(lp1652
I8
aI0
aa(lp1653
I0
aI0
aa(lp1654
I13
aI0
aa(lp1655
I0
aI0
aa(lp1656
I0
aI0
aa(lp1657
I0
aI0
aa(lp1658
I25
aI0
aa(lp1659
I0
aI0
aa(lp1660
I15
aI0
aa(lp1661
I0
aI0
aa(lp1662
I0
aI0
aa(lp1663
I0
aI0
aa(lp1664
I17
aI0
aa(lp1665
I0
aI0
aa(lp1666
I15
aI0
aa(lp1667
I0
aI0
aaa(lp1668
(lp1669
I4
aI0
aa(lp1670
I13
aI0
aa(lp1671
I0
aI0
aa(lp1672
I13
aI0
aa(lp1673
I0
aI0
aa(lp1674
I13
aI0
aa(lp1675
I14
aI0
aa(lp1676
I13
aI0
aa(lp1677
I14
aI0
aa(lp1678
I13
aI0
aa(lp1679
I13
aI0
aa(lp1680
I14
aI0
aa(lp1681
I13
aI0
aa(lp1682
I0
aI0
aa(lp1683
I20
aI0
aa(lp1684
I8
aI0
aa(lp1685
I13
aI0
aa(lp1686
I0
aI0
aa(lp1687
I0
aI0
aa(lp1688
I0
aI0
aa(lp1689
I0
aI0
aa(lp1690
I0
aI0
aa(lp1691
I0
aI0
aa(lp1692
I0
aI0
aa(lp1693
I0
aI0
aa(lp1694
I0
aI0
aa(lp1695
I0
aI0
aa(lp1696
I0
aI0
aa(lp1697
I0
aI0
aa(lp1698
I0
aI0
aa(lp1699
I0
aI0
aa(lp1700
I0
aI0
aaa(lp1701
(lp1702
I0
aI0
aa(lp1703
I4
aI0
aa(lp1704
I0
aI0
aa(lp1705
I13
aI0
aa(lp1706
I0
aI0
aa(lp1707
I13
aI0
aa(lp1708
I0
aI0
aa(lp1709
I0
aI0
aa(lp1710
I8
aI0
aa(lp1711
I0
aI0
aa(lp1712
I13
aI0
aa(lp1713
I8
aI0
aa(lp1714
I13
aI0
aa(lp1715
I0
aI0
aa(lp1716
I0
aI0
aa(lp1717
I0
aI0
aa(lp1718
I13
aI0
aa(lp1719
I0
aI0
aa(lp1720
I0
aI0
aa(lp1721
I0
aI0
aa(lp1722
I18
aI0
aa(lp1723
I0
aI0
aa(lp1724
I20
aI0
aa(lp1725
I25
aI0
aa(lp1726
I0
aI0
aa(lp1727
I0
aI0
aa(lp1728
I0
aI0
aa(lp1729
I0
aI0
aa(lp1730
I13
aI0
aa(lp1731
I3
aI0
aa(lp1732
I16
aI0
aa(lp1733
I0
aI0
aaa(lp1734
(lp1735
I0
aI0
aa(lp1736
I13
aI0
aa(lp1737
I0
aI0
aa(lp1738
I13
aI0
aa(lp1739
I4
aI0
aa(lp1740
I13
aI0
aa(lp1741
I13
aI0
aa(lp1742
I0
aI0
aa(lp1743
I0
aI0
aa(lp1744
I22
aI0
aa(lp1745
I0
aI0
aa(lp1746
I0
aI0
aa(lp1747
I0
aI0
aa(lp1748
I0
aI0
aa(lp1749
I13
aI0
aa(lp1750
I13
aI0
aa(lp1751
I0
aI0
aa(lp1752
I0
aI0
aa(lp1753
I0
aI0
aa(lp1754
I0
aI0
aa(lp1755
I0
aI0
aa(lp1756
I0
aI0
aa(lp1757
I0
aI0
aa(lp1758
I25
aI0
aa(lp1759
I0
aI0
aa(lp1760
I0
aI0
aa(lp1761
I0
aI0
aa(lp1762
I0
aI0
aa(lp1763
I0
aI0
aa(lp1764
I0
aI0
aa(lp1765
I0
aI0
aa(lp1766
I0
aI0
aaa(lp1767
(lp1768
I0
aI0
aa(lp1769
I4
aI0
aa(lp1770
I0
aI0
aa(lp1771
I0
aI0
aa(lp1772
I0
aI0
aa(lp1773
I0
aI0
aa(lp1774
I13
aI0
aa(lp1775
I0
aI0
aa(lp1776
I0
aI0
aa(lp1777
I0
aI0
aa(lp1778
I0
aI0
aa(lp1779
I0
aI0
aa(lp1780
I22
aI0
aa(lp1781
I0
aI0
aa(lp1782
I0
aI0
aa(lp1783
I13
aI0
aa(lp1784
I0
aI0
aa(lp1785
I8
aI0
aa(lp1786
I0
aI0
aa(lp1787
I8
aI0
aa(lp1788
I0
aI0
aa(lp1789
I0
aI0
aa(lp1790
I2
aI0
aa(lp1791
I25
aI0
aa(lp1792
I0
aI0
aa(lp1793
I0
aI0
aa(lp1794
I18
aI0
aa(lp1795
I0
aI0
aa(lp1796
I0
aI0
aa(lp1797
I0
aI0
aa(lp1798
I18
aI0
aa(lp1799
I0
aI0
aaa(lp1800
(lp1801
I13
aI0
aa(lp1802
I0
aI0
aa(lp1803
I13
aI0
aa(lp1804
I4
aI0
aa(lp1805
I13
aI0
aa(lp1806
I0
aI0
aa(lp1807
I13
aI0
aa(lp1808
I0
aI0
aa(lp1809
I0
aI0
aa(lp1810
I0
aI0
aa(lp1811
I0
aI0
aa(lp1812
I0
aI0
aa(lp1813
I0
aI0
aa(lp1814
I21
aI0
aa(lp1815
I22
aI0
aa(lp1816
I25
aI0
aa(lp1817
I0
aI0
aa(lp1818
I25
aI0
aa(lp1819
I0
aI0
aa(lp1820
I0
aI0
aa(lp1821
I0
aI0
aa(lp1822
I0
aI0
aa(lp1823
I3
aI0
aa(lp1824
I0
aI0
aa(lp1825
I0
aI0
aa(lp1826
I0
aI0
aa(lp1827
I3
aI0
aa(lp1828
I0
aI0
aa(lp1829
I0
aI0
aa(lp1830
I0
aI0
aa(lp1831
I0
aI0
aa(lp1832
I0
aI0
aaa(lp1833
(lp1834
I25
aI0
aa(lp1835
I25
aI0
aa(lp1836
I25
aI0
aa(lp1837
I25
aI0
aa(lp1838
I25
aI0
aa(lp1839
I14
aI0
aa(lp1840
I25
aI0
aa(lp1841
I25
aI0
aa(lp1842
I25
aI0
aa(lp1843
I0
aI0
aa(lp1844
I13
aI0
aa(lp1845
I22
aI0
aa(lp1846
I25
aI0
aa(lp1847
I12
a(I0
I16
tp1848
aa(lp1849
I25
aI0
aa(lp1850
I8
aI0
aa(lp1851
I14
aI0
aa(lp1852
I8
aI0
aa(lp1853
I25
aI0
aa(lp1854
I0
aI0
aa(lp1855
I8
aI0
aa(lp1856
I0
aI0
aa(lp1857
I8
aI0
aa(lp1858
I0
aI0
aa(lp1859
I18
aI0
aa(lp1860
I0
aI0
aa(lp1861
I0
aI0
aa(lp1862
I0
aI0
aa(lp1863
I0
aI0
aa(lp1864
I0
aI0
aa(lp1865
I0
aI0
aa(lp1866
I9
aI0
aaa(lp1867
(lp1868
I14
aI0
aa(lp1869
I14
aI0
aa(lp1870
I14
aI0
aa(lp1871
I14
aI0
aa(lp1872
I14
aI0
aa(lp1873
I14
aI0
aa(lp1874
I14
aI0
aa(lp1875
I14
aI0
aa(lp1876
I14
aI0
aa(lp1877
I14
aI0
aa(lp1878
I14
aI0
aa(lp1879
I25
aI0
aa(lp1880
I25
aI0
aa(lp1881
I25
aI0
aa(lp1882
I25
aI0
aa(lp1883
I0
aI0
aa(lp1884
I8
aI0
aa(lp1885
I25
aI0
aa(lp1886
I25
aI0
aa(lp1887
I25
aI0
aa(lp1888
I25
aI0
aa(lp1889
I7
a(I18
I22
tp1890
aa(lp1891
I25
aI0
aa(lp1892
I9
aI0
aa(lp1893
I25
aI0
aa(lp1894
I9
aI0
aa(lp1895
I25
aI0
aa(lp1896
I9
aI0
aa(lp1897
I18
aI0
aa(lp1898
I0
aI0
aa(lp1899
I8
aI0
aa(lp1900
I25
aI0
aaa(lp1901
(lp1902
I14
aI0
aa(lp1903
I14
aI0
aa(lp1904
I14
aI0
aa(lp1905
I14
aI0
aa(lp1906
I14
aI0
aa(lp1907
I14
aI0
aa(lp1908
I14
aI0
aa(lp1909
I14
aI0
aa(lp1910
I14
aI0
aa(lp1911
I14
aI0
aa(lp1912
I13
aI0
aa(lp1913
I25
aI0
aa(lp1914
I25
aI0
aa(lp1915
I25
aI0
aa(lp1916
I25
aI0
aa(lp1917
I0
aI0
aa(lp1918
I0
aI0
aa(lp1919
I25
aI0
aa(lp1920
I25
aI0
aa(lp1921
I25
aI0
aa(lp1922
I25
aI0
aa(lp1923
I25
aI0
aa(lp1924
I9
aI0
aa(lp1925
I25
aI0
aa(lp1926
I3
aI0
aa(lp1927
I25
aI0
aa(lp1928
I3
aI0
aa(lp1929
I25
aI0
aa(lp1930
I25
aI0
aa(lp1931
I14
aI0
aa(lp1932
I8
aI0
aa(lp1933
I0
aI0
aaa(lp1934
(lp1935
I25
aI0
aa(lp1936
I25
aI0
aa(lp1937
I25
aI0
aa(lp1938
I25
aI0
aa(lp1939
I25
aI0
aa(lp1940
I25
aI0
aa(lp1941
I25
aI0
aa(lp1942
I25
aI0
aa(lp1943
I25
aI0
aa(lp1944
I0
aI0
aa(lp1945
I18
aI0
aa(lp1946
I0
aI0
aa(lp1947
I0
aI0
aa(lp1948
I0
aI0
aa(lp1949
I25
aI0
aa(lp1950
I8
aI0
aa(lp1951
I14
aI0
aa(lp1952
I8
aI0
aa(lp1953
I25
aI0
aa(lp1954
I7
a(I7
I14
tp1955
aa(lp1956
I8
aI0
aa(lp1957
I22
aI0
aa(lp1958
I0
aI0
aa(lp1959
I13
aI0
aa(lp1960
I13
aI0
aa(lp1961
I13
aI0
aa(lp1962
I13
aI0
aa(lp1963
I13
aI0
aa(lp1964
I13
aI0
aa(lp1965
I25
aI0
aa(lp1966
I25
aI0
aa(lp1967
I8
aI0
aaa(lp1968
(lp1969
I7
a(I27
I10
tp1970
aa(lp1971
I0
aI0
aa(lp1972
I0
aI0
aa(lp1973
I0
aI0
aa(lp1974
I0
aI0
aa(lp1975
I0
aI0
aa(lp1976
I0
aI0
aa(lp1977
I0
aI0
aa(lp1978
I22
aI0
aa(lp1979
I0
aI0
aa(lp1980
I8
aI0
aa(lp1981
I0
aI0
aa(lp1982
I8
aI0
aa(lp1983
I25
aI0
aa(lp1984
I8
aI0
aa(lp1985
I25
aI0
aa(lp1986
I0
aI0
aa(lp1987
I25
aI0
aa(lp1988
I8
aI0
aa(lp1989
I0
aI0
aa(lp1990
I0
aI0
aa(lp1991
I0
aI0
aa(lp1992
I0
aI0
aa(lp1993
I0
aI0
aa(lp1994
I0
aI0
aa(lp1995
I12
a(I17
I24
tp1996
aa(lp1997
I0
aI0
aa(lp1998
I12
a(I17
I26
tp1999
aa(lp2000
I0
aI0
aa(lp2001
I25
aI0
aa(lp2002
I0
aI0
aa(lp2003
I0
aI0
aaa(lp2004
(lp2005
I0
aI0
aa(lp2006
I0
aI0
aa(lp2007
I0
aI0
aa(lp2008
I0
aI0
aa(lp2009
I0
aI0
aa(lp2010
I0
aI0
aa(lp2011
I0
aI0
aa(lp2012
I0
aI0
aa(lp2013
I2
aI0
aa(lp2014
I0
aI0
aa(lp2015
I5
aI0
aa(lp2016
I25
aI0
aa(lp2017
I25
aI0
aa(lp2018
I0
aI0
aa(lp2019
I0
aI0
aa(lp2020
I25
aI0
aa(lp2021
I0
aI0
aa(lp2022
I0
aI0
aa(lp2023
I0
aI0
aa(lp2024
I4
aI0
aa(lp2025
I8
aI0
aa(lp2026
I0
aI0
aa(lp2027
I14
aI0
aa(lp2028
I8
aI0
aa(lp2029
I0
aI0
aa(lp2030
I0
aI0
aa(lp2031
I0
aI0
aa(lp2032
I0
aI0
aa(lp2033
I0
aI0
aa(lp2034
I25
aI0
aa(lp2035
I0
aI0
aa(lp2036
I20
aI0
aaa(lp2037
(lp2038
I4
aI0
aa(lp2039
I0
aI0
aa(lp2040
I0
aI0
aa(lp2041
I0
aI0
aa(lp2042
I0
aI0
aa(lp2043
I0
aI0
aa(lp2044
I4
aI0
aa(lp2045
I0
aI0
aa(lp2046
I0
aI0
aa(lp2047
I25
aI0
aa(lp2048
I4
aI0
aa(lp2049
I0
aI0
aa(lp2050
I0
aI0
aa(lp2051
I8
aI0
aa(lp2052
I0
aI0
aa(lp2053
I4
aI0
aa(lp2054
I25
aI0
aa(lp2055
I0
aI0
aa(lp2056
I0
aI0
aa(lp2057
I0
aI0
aa(lp2058
I8
aI0
aa(lp2059
I0
aI0
aa(lp2060
I0
aI0
aa(lp2061
I14
aI0
aa(lp2062
I22
aI0
aa(lp2063
I0
aI0
aa(lp2064
I22
aI0
aa(lp2065
I0
aI0
aa(lp2066
I22
aI0
aa(lp2067
I0
aI0
aa(lp2068
I0
aI0
aa(lp2069
I0
aI0
aaa(lp2070
(lp2071
I7
a(I31
I7
tp2072
aa(lp2073
I0
aI0
aa(lp2074
I0
aI0
aa(lp2075
I4
aI0
aa(lp2076
I0
aI0
aa(lp2077
I0
aI0
aa(lp2078
I0
aI0
aa(lp2079
I0
aI0
aa(lp2080
I7
a(I21
I7
tp2081
aa(lp2082
I25
aI0
aa(lp2083
I0
aI0
aa(lp2084
I22
aI0
aa(lp2085
I0
aI0
aa(lp2086
I0
aI0
aa(lp2087
I0
aI0
aa(lp2088
I14
aI0
aa(lp2089
I21
aI0
aa(lp2090
I0
aI0
aa(lp2091
I0
aI0
aa(lp2092
I0
aI0
aa(lp2093
I4
aI0
aa(lp2094
I0
aI0
aa(lp2095
I25
aI0
aa(lp2096
I22
aI0
aa(lp2097
I20
aI0
aa(lp2098
I22
aI0
aa(lp2099
I0
aI0
aa(lp2100
I22
aI0
aa(lp2101
I0
aI0
aa(lp2102
I22
aI0
aa(lp2103
I0
aI0
aa(lp2104
I21
aI0
aaa(lp2105
(lp2106
I0
aI0
aa(lp2107
I0
aI0
aa(lp2108
I0
aI0
aa(lp2109
I0
aI0
aa(lp2110
I0
aI0
aa(lp2111
I0
aI0
aa(lp2112
I0
aI0
aa(lp2113
I0
aI0
aa(lp2114
I0
aI0
aa(lp2115
I0
aI0
aa(lp2116
I25
aI0
aa(lp2117
I0
aI0
aa(lp2118
I0
aI0
aa(lp2119
I0
aI0
aa(lp2120
I0
aI0
aa(lp2121
I13
aI0
aa(lp2122
I20
aI0
aa(lp2123
I13
aI0
aa(lp2124
I13
aI0
aa(lp2125
I13
aI0
aa(lp2126
I13
aI0
aa(lp2127
I13
aI0
aa(lp2128
I13
aI0
aa(lp2129
I13
aI0
aa(lp2130
I13
aI0
aa(lp2131
I13
aI0
aa(lp2132
I13
aI0
aa(lp2133
I13
aI0
aa(lp2134
I13
aI0
aa(lp2135
I13
aI0
aa(lp2136
I13
aI0
aa(lp2137
I21
aI0
aaa(lp2138
(lp2139
I0
aI0
aa(lp2140
I0
aI0
aa(lp2141
I0
aI0
aa(lp2142
I0
aI0
aa(lp2143
I0
aI0
aa(lp2144
I0
aI0
aa(lp2145
I0
aI0
aa(lp2146
I7
a(I18
I3
tp2147
aa(lp2148
I0
aI0
aa(lp2149
I0
aI0
aa(lp2150
I0
aI0
aa(lp2151
I25
aI0
aa(lp2152
I0
aI0
aa(lp2153
I0
aI0
aa(lp2154
I13
aI0
aa(lp2155
I0
aI0
aa(lp2156
I0
aI0
aa(lp2157
I0
aI0
aa(lp2158
I13
aI0
aa(lp2159
I0
aI0
aa(lp2160
I0
aI0
aa(lp2161
I0
aI0
aa(lp2162
I0
aI0
aa(lp2163
I0
aI0
aa(lp2164
I13
aI0
aa(lp2165
I0
aI0
aa(lp2166
I14
aI0
aa(lp2167
I14
aI0
aa(lp2168
I14
aI0
aa(lp2169
I14
aI0
aa(lp2170
I22
aI0
aa(lp2171
I0
aI0
aaa(lp2172
(lp2173
I0
aI0
aa(lp2174
I0
aI0
aa(lp2175
I0
aI0
aa(lp2176
I7
a(I24
I9
tp2177
aa(lp2178
I0
aI0
aa(lp2179
I0
aI0
aa(lp2180
I0
aI0
aa(lp2181
I4
aI0
aa(lp2182
I0
aI0
aa(lp2183
I0
aI0
aa(lp2184
I0
aI0
aa(lp2185
I0
aI0
aa(lp2186
I25
aI0
aa(lp2187
I13
aI0
aa(lp2188
I0
aI0
aa(lp2189
I14
aI0
aa(lp2190
I25
aI0
aa(lp2191
I0
aI0
aa(lp2192
I25
aI0
aa(lp2193
I14
aI0
aa(lp2194
I25
aI0
aa(lp2195
I0
aI0
aa(lp2196
I25
aI0
aa(lp2197
I0
aI0
aa(lp2198
I25
aI0
aa(lp2199
I0
aI0
aa(lp2200
I25
aI0
aa(lp2201
I0
aI0
aa(lp2202
I25
aI0
aa(lp2203
I0
aI0
aa(lp2204
I25
aI0
aa(lp2205
I0
aI0
aaa(lp2206
(lp2207
I4
aI0
aa(lp2208
I0
aI0
aa(lp2209
I0
aI0
aa(lp2210
I4
aI0
aa(lp2211
I0
aI0
aa(lp2212
I0
aI0
aa(lp2213
I0
aI0
aa(lp2214
I0
aI0
aa(lp2215
I0
aI0
aa(lp2216
I0
aI0
aa(lp2217
I0
aI0
aa(lp2218
I0
aI0
aa(lp2219
I25
aI0
aa(lp2220
I14
aI0
aa(lp2221
I14
aI0
aa(lp2222
I14
aI0
aa(lp2223
I14
aI0
aa(lp2224
I14
aI0
aa(lp2225
I22
aI0
aa(lp2226
I0
aI0
aa(lp2227
I14
aI0
aa(lp2228
I8
aI0
aa(lp2229
I0
aI0
aa(lp2230
I14
aI0
aa(lp2231
I8
aI0
aa(lp2232
I14
aI0
aa(lp2233
I22
aI0
aa(lp2234
I0
aI0
aa(lp2235
I14
aI0
aa(lp2236
I14
aI0
aa(lp2237
I22
aI0
aa(lp2238
I0
aI0
aaa(lp2239
(lp2240
I0
aI0
aa(lp2241
I0
aI0
aa(lp2242
I0
aI0
aa(lp2243
I0
aI0
aa(lp2244
I0
aI0
aa(lp2245
I0
aI0
aa(lp2246
I0
aI0
aa(lp2247
I0
aI0
aa(lp2248
I0
aI0
aa(lp2249
I0
aI0
aa(lp2250
I7
a(I23
I2
tp2251
aa(lp2252
I0
aI0
aa(lp2253
I25
aI0
aa(lp2254
I14
aI0
aa(lp2255
I25
aI0
aa(lp2256
I0
aI0
aa(lp2257
I25
aI0
aa(lp2258
I0
aI0
aa(lp2259
I25
aI0
aa(lp2260
I0
aI0
aa(lp2261
I25
aI0
aa(lp2262
I13
aI0
aa(lp2263
I25
aI0
aa(lp2264
I0
aI0
aa(lp2265
I25
aI0
aa(lp2266
I0
aI0
aa(lp2267
I25
aI0
aa(lp2268
I0
aI0
aa(lp2269
I25
aI0
aa(lp2270
I0
aI0
aa(lp2271
I25
aI0
aa(lp2272
I0
aI0
aaa(lp2273
(lp2274
I7
a(I31
I2
tp2275
aa(lp2276
I0
aI0
aa(lp2277
I0
aI0
aa(lp2278
I0
aI0
aa(lp2279
I0
aI0
aa(lp2280
I0
aI0
aa(lp2281
I0
aI0
aa(lp2282
I0
aI0
aa(lp2283
I0
aI0
aa(lp2284
I0
aI0
aa(lp2285
I0
aI0
aa(lp2286
I0
aI0
aa(lp2287
I25
aI0
aa(lp2288
I0
aI0
aa(lp2289
I0
aI0
aa(lp2290
I0
aI0
aa(lp2291
I0
aI0
aa(lp2292
I0
aI0
aa(lp2293
I13
aI0
aa(lp2294
I0
aI0
aa(lp2295
I8
aI0
aa(lp2296
I9
aI0
aa(lp2297
I0
aI0
aa(lp2298
I0
aI0
aa(lp2299
I14
aI0
aa(lp2300
I8
aI0
aa(lp2301
I0
aI0
aa(lp2302
I14
aI0
aa(lp2303
I22
aI0
aa(lp2304
I0
aI0
aa(lp2305
I22
aI0
aa(lp2306
I0
aI0
aaa(lp2307
(lp2308
I0
aI0
aa(lp2309
I0
aI0
aa(lp2310
I0
aI0
aa(lp2311
I0
aI0
aa(lp2312
I4
aI0
aa(lp2313
I0
aI0
aa(lp2314
I0
aI0
aa(lp2315
I0
aI0
aa(lp2316
I0
aI0
aa(lp2317
I4
aI0
aa(lp2318
I0
aI0
aa(lp2319
I0
aI0
aa(lp2320
I25
aI0
aa(lp2321
I0
aI0
aa(lp2322
I25
aI0
aa(lp2323
I0
aI0
aa(lp2324
I25
aI0
aa(lp2325
I14
aI0
aa(lp2326
I25
aI0
aa(lp2327
I22
aI0
aa(lp2328
I25
aI0
aa(lp2329
I13
aI0
aa(lp2330
I25
aI0
aa(lp2331
I0
aI0
aa(lp2332
I25
aI0
aa(lp2333
I0
aI0
aa(lp2334
I25
aI0
aa(lp2335
I0
aI0
aa(lp2336
I25
aI0
aa(lp2337
I14
aI0
aa(lp2338
I25
aI0
aa(lp2339
I0
aI0
aaa(lp2340
(lp2341
I0
aI0
aa(lp2342
I4
aI0
aa(lp2343
I0
aI0
aa(lp2344
I0
aI0
aa(lp2345
I0
aI0
aa(lp2346
I0
aI0
aa(lp2347
I0
aI0
aa(lp2348
I0
aI0
aa(lp2349
I0
aI0
aa(lp2350
I0
aI0
aa(lp2351
I0
aI0
aa(lp2352
I0
aI0
aa(lp2353
I25
aI0
aa(lp2354
I22
aI0
aa(lp2355
I0
aI0
aa(lp2356
I14
aI0
aa(lp2357
I22
aI0
aa(lp2358
I14
aI0
aa(lp2359
I14
aI0
aa(lp2360
I14
aI0
aa(lp2361
I22
aI0
aa(lp2362
I0
aI0
aa(lp2363
I0
aI0
aa(lp2364
I14
aI0
aa(lp2365
I8
aI0
aa(lp2366
I0
aI0
aa(lp2367
I14
aI0
aa(lp2368
I22
aI0
aa(lp2369
I0
aI0
aa(lp2370
I22
aI0
aa(lp2371
I14
aI0
aa(lp2372
I22
aI0
aaa(lp2373
(lp2374
I13
aI0
aa(lp2375
I16
aI0
aa(lp2376
I7
a(I18
I3
tp2377
aa(lp2378
I0
aI0
aa(lp2379
I0
aI0
aa(lp2380
I0
aI0
aa(lp2381
I4
aI0
aa(lp2382
I0
aI0
aa(lp2383
I0
aI0
aa(lp2384
I0
aI0
aa(lp2385
I4
aI0
aa(lp2386
I0
aI0
aa(lp2387
I25
aI0
aa(lp2388
I0
aI0
aa(lp2389
I25
aI0
aa(lp2390
I0
aI0
aa(lp2391
I25
aI0
aa(lp2392
I0
aI0
aa(lp2393
I25
aI0
aa(lp2394
I22
aI0
aa(lp2395
I25
aI0
aa(lp2396
I8
aI0
aa(lp2397
I25
aI0
aa(lp2398
I0
aI0
aa(lp2399
I25
aI0
aa(lp2400
I0
aI0
aa(lp2401
I25
aI0
aa(lp2402
I0
aI0
aa(lp2403
I25
aI0
aa(lp2404
I0
aI0
aa(lp2405
I25
aI0
aa(lp2406
I0
aI0
aaa(lp2407
(lp2408
I12
a(I16
I10
tp2409
aa(lp2410
I0
aI0
aa(lp2411
I0
aI0
aa(lp2412
I7
a(I21
I7
tp2413
aa(lp2414
I0
aI0
aa(lp2415
I0
aI0
aa(lp2416
I0
aI0
aa(lp2417
I0
aI0
aa(lp2418
I0
aI0
aa(lp2419
I7
a(I18
I7
tp2420
aa(lp2421
I0
aI0
aa(lp2422
I0
aI0
aa(lp2423
I25
aI0
aa(lp2424
I7
a(I17
I13
tp2425
aa(lp2426
I0
aI0
aa(lp2427
I0
aI0
aa(lp2428
I14
aI0
aa(lp2429
I22
aI0
aa(lp2430
I0
aI0
aa(lp2431
I0
aI0
aa(lp2432
I0
aI0
aa(lp2433
I0
aI0
aa(lp2434
I0
aI0
aa(lp2435
I14
aI0
aa(lp2436
I13
aI0
aa(lp2437
I0
aI0
aa(lp2438
I14
aI0
aa(lp2439
I14
aI0
aa(lp2440
I14
aI0
aa(lp2441
I22
aI0
aa(lp2442
I0
aI0
aa(lp2443
I0
aI0
aaaasS'def_file'
p2444
S'CTdefs.py'
p2445
sS'level_size'
p2446
(lp2447
(lp2448
I16
aI12
aa(lp2449
I16
aI12
aa(lp2450
I16
aI30
aa(lp2451
I32
aI12
aa(lp2452
I32
aI32
aasS'dave_pos'
p2453
(lp2454
(I2
I10
tp2455
a(I6
I2
tp2456
a(I1
I3
tp2457
a(I5
I3
tp2458
a(I16
I15
tp2459
asS'minimum_score'
p2460
(lp2461
I20
aI15
aI12
aI5
aI42
asb.