(i__main__
Game_Data
p0
(dp1
S'level_map'
p2
(lp3
(lp4
(lp5
(lp6
I0
aI0
aa(lp7
I0
aI0
aa(lp8
I6
aI0
aa(lp9
I3
aI0
aa(lp10
I1
aI0
aa(lp11
I6
aI0
aa(lp12
I1
aI0
aa(lp13
I6
aI0
aa(lp14
I3
aI0
aa(lp15
I6
aI0
aa(lp16
I1
aI0
aa(lp17
I6
aI0
aaa(lp18
(lp19
I6
aI0
aa(lp20
I4
aI0
aa(lp21
I0
aI0
aa(lp22
I6
aI0
aa(lp23
I1
aI0
aa(lp24
I6
aI0
aa(lp25
I1
aI0
aa(lp26
I6
aI0
aa(lp27
I3
aI0
aa(lp28
I0
aI0
aa(lp29
I1
aI0
aa(lp30
I6
aI0
aaa(lp31
(lp32
I0
aI0
aa(lp33
I2
aI0
aa(lp34
I6
aI0
aa(lp35
I4
aI0
aa(lp36
I1
aI0
aa(lp37
I6
aI0
aa(lp38
I1
aI0
aa(lp39
I6
aI0
aa(lp40
I5
aI0
aa(lp41
I6
aI0
aa(lp42
I0
aI0
aa(lp43
I0
aI0
aaa(lp44
(lp45
I1
aI0
aa(lp46
I1
aI0
aa(lp47
I0
aI0
aa(lp48
I1
aI0
aa(lp49
I1
aI0
aa(lp50
I6
aI0
aa(lp51
I1
aI0
aa(lp52
I6
aI0
aa(lp53
I2
aI0
aa(lp54
I0
aI0
aa(lp55
I1
aI0
aa(lp56
I0
aI0
aaa(lp57
(lp58
I6
aI0
aa(lp59
I6
aI0
aa(lp60
I0
aI0
aa(lp61
I0
aI0
aa(lp62
I0
aI0
aa(lp63
I0
aI0
aa(lp64
I1
aI0
aa(lp65
I6
aI0
aa(lp66
I2
aI0
aa(lp67
I6
aI0
aa(lp68
I1
aI0
aa(lp69
I6
aI0
aaa(lp70
(lp71
I1
aI0
aa(lp72
I1
aI0
aa(lp73
I1
aI0
aa(lp74
I1
aI0
aa(lp75
I1
aI0
aa(lp76
I0
aI0
aa(lp77
I1
aI0
aa(lp78
I1
aI0
aa(lp79
I1
aI0
aa(lp80
I1
aI0
aa(lp81
I1
aI0
aa(lp82
I6
aI0
aaa(lp83
(lp84
I6
aI0
aa(lp85
I5
aI0
aa(lp86
I6
aI0
aa(lp87
I4
aI0
aa(lp88
I1
aI0
aa(lp89
I0
aI0
aa(lp90
I1
aI0
aa(lp91
I3
aI0
aa(lp92
I3
aI0
aa(lp93
I3
aI0
aa(lp94
I1
aI0
aa(lp95
I0
aI0
aaa(lp96
(lp97
I6
aI0
aa(lp98
I6
aI0
aa(lp99
I0
aI0
aa(lp100
I6
aI0
aa(lp101
I0
aI0
aa(lp102
I6
aI0
aa(lp103
I4
aI0
aa(lp104
I6
aI0
aa(lp105
I6
aI0
aa(lp106
I6
aI0
aa(lp107
I0
aI0
aa(lp108
I0
aI0
aaa(lp109
(lp110
I6
aI0
aa(lp111
I5
aI0
aa(lp112
I6
aI0
aa(lp113
I4
aI0
aa(lp114
I1
aI0
aa(lp115
I0
aI0
aa(lp116
I1
aI0
aa(lp117
I2
aI0
aa(lp118
I2
aI0
aa(lp119
I2
aI0
aa(lp120
I1
aI0
aa(lp121
I0
aI0
aaa(lp122
(lp123
I1
aI0
aa(lp124
I1
aI0
aa(lp125
I1
aI0
aa(lp126
I1
aI0
aa(lp127
I1
aI0
aa(lp128
I0
aI0
aa(lp129
I1
aI0
aa(lp130
I1
aI0
aa(lp131
I1
aI0
aa(lp132
I1
aI0
aa(lp133
I1
aI0
aa(lp134
I6
aI0
aaa(lp135
(lp136
I6
aI0
aa(lp137
I6
aI0
aa(lp138
I0
aI0
aa(lp139
I0
aI0
aa(lp140
I0
aI0
aa(lp141
I0
aI0
aa(lp142
I1
aI0
aa(lp143
I6
aI0
aa(lp144
I4
aI0
aa(lp145
I6
aI0
aa(lp146
I1
aI0
aa(lp147
I6
aI0
aaa(lp148
(lp149
I1
aI0
aa(lp150
I1
aI0
aa(lp151
I0
aI0
aa(lp152
I1
aI0
aa(lp153
I1
aI0
aa(lp154
I6
aI0
aa(lp155
I1
aI0
aa(lp156
I0
aI0
aa(lp157
I0
aI0
aa(lp158
I0
aI0
aa(lp159
I1
aI0
aa(lp160
I0
aI0
aaa(lp161
(lp162
I5
aI0
aa(lp163
I6
aI0
aa(lp164
I0
aI0
aa(lp165
I6
aI0
aa(lp166
I1
aI0
aa(lp167
I6
aI0
aa(lp168
I1
aI0
aa(lp169
I6
aI0
aa(lp170
I3
aI0
aa(lp171
I6
aI0
aa(lp172
I0
aI0
aa(lp173
I0
aI0
aaa(lp174
(lp175
I6
aI0
aa(lp176
I0
aI0
aa(lp177
I0
aI0
aa(lp178
I6
aI0
aa(lp179
I1
aI0
aa(lp180
I6
aI0
aa(lp181
I1
aI0
aa(lp182
I2
aI0
aa(lp183
I6
aI0
aa(lp184
I2
aI0
aa(lp185
I0
aI0
aa(lp186
I0
aI0
aaa(lp187
(lp188
I6
aI0
aa(lp189
I5
aI0
aa(lp190
I6
aI0
aa(lp191
I2
aI0
aa(lp192
I1
aI0
aa(lp193
I6
aI0
aa(lp194
I1
aI0
aa(lp195
I0
aI0
aa(lp196
I0
aI0
aa(lp197
I0
aI0
aa(lp198
I1
aI0
aa(lp199
I6
aI0
aaa(lp200
(lp201
I0
aI0
aa(lp202
I6
aI0
aa(lp203
I2
aI0
aa(lp204
I6
aI0
aa(lp205
I1
aI0
aa(lp206
I2
aI0
aa(lp207
I1
aI0
aa(lp208
I6
aI0
aa(lp209
I5
aI0
aa(lp210
I6
aI0
aa(lp211
I1
aI0
aa(lp212
I6
aI0
aaaa(lp213
(lp214
(lp215
I3
aI0
aa(lp216
I4
aI0
aa(lp217
I4
aI0
aa(lp218
I4
aI0
aa(lp219
I4
aI0
aa(lp220
I4
aI0
aa(lp221
I4
aI0
aa(lp222
I4
aI0
aa(lp223
I4
aI0
aa(lp224
I4
aI0
aa(lp225
I4
aI0
aa(lp226
I4
aI0
aaa(lp227
(lp228
I3
aI0
aa(lp229
I1
aI0
aa(lp230
I1
aI0
aa(lp231
I1
aI0
aa(lp232
I1
aI0
aa(lp233
I1
aI0
aa(lp234
I1
aI0
aa(lp235
I1
aI0
aa(lp236
I1
aI0
aa(lp237
I1
aI0
aa(lp238
I1
aI0
aa(lp239
I2
aI0
aaa(lp240
(lp241
I3
aI0
aa(lp242
I1
aI0
aa(lp243
I6
aI0
aa(lp244
I6
aI0
aa(lp245
I6
aI0
aa(lp246
I6
aI0
aa(lp247
I6
aI0
aa(lp248
I6
aI0
aa(lp249
I6
aI0
aa(lp250
I6
aI0
aa(lp251
I1
aI0
aa(lp252
I2
aI0
aaa(lp253
(lp254
I3
aI0
aa(lp255
I1
aI0
aa(lp256
I6
aI0
aa(lp257
I1
aI0
aa(lp258
I1
aI0
aa(lp259
I1
aI0
aa(lp260
I1
aI0
aa(lp261
I1
aI0
aa(lp262
I1
aI0
aa(lp263
I6
aI0
aa(lp264
I1
aI0
aa(lp265
I2
aI0
aaa(lp266
(lp267
I3
aI0
aa(lp268
I1
aI0
aa(lp269
I6
aI0
aa(lp270
I5
aI0
aa(lp271
I3
aI0
aa(lp272
I0
aI0
aa(lp273
I6
aI0
aa(lp274
I0
aI0
aa(lp275
I1
aI0
aa(lp276
I6
aI0
aa(lp277
I1
aI0
aa(lp278
I2
aI0
aaa(lp279
(lp280
I3
aI0
aa(lp281
I1
aI0
aa(lp282
I6
aI0
aa(lp283
I1
aI0
aa(lp284
I6
aI0
aa(lp285
I3
aI0
aa(lp286
I5
aI0
aa(lp287
I6
aI0
aa(lp288
I1
aI0
aa(lp289
I6
aI0
aa(lp290
I1
aI0
aa(lp291
I2
aI0
aaa(lp292
(lp293
I3
aI0
aa(lp294
I1
aI0
aa(lp295
I6
aI0
aa(lp296
I1
aI0
aa(lp297
I5
aI0
aa(lp298
I6
aI0
aa(lp299
I0
aI0
aa(lp300
I5
aI0
aa(lp301
I1
aI0
aa(lp302
I6
aI0
aa(lp303
I1
aI0
aa(lp304
I2
aI0
aaa(lp305
(lp306
I3
aI0
aa(lp307
I1
aI0
aa(lp308
I6
aI0
aa(lp309
I1
aI0
aa(lp310
I3
aI0
aa(lp311
I4
aI0
aa(lp312
I3
aI0
aa(lp313
I6
aI0
aa(lp314
I1
aI0
aa(lp315
I6
aI0
aa(lp316
I1
aI0
aa(lp317
I2
aI0
aaa(lp318
(lp319
I3
aI0
aa(lp320
I1
aI0
aa(lp321
I6
aI0
aa(lp322
I1
aI0
aa(lp323
I3
aI0
aa(lp324
I5
aI0
aa(lp325
I6
aI0
aa(lp326
I0
aI0
aa(lp327
I6
aI0
aa(lp328
I0
aI0
aa(lp329
I1
aI0
aa(lp330
I2
aI0
aaa(lp331
(lp332
I3
aI0
aa(lp333
I1
aI0
aa(lp334
I6
aI0
aa(lp335
I1
aI0
aa(lp336
I6
aI0
aa(lp337
I6
aI0
aa(lp338
I2
aI0
aa(lp339
I6
aI0
aa(lp340
I0
aI0
aa(lp341
I1
aI0
aa(lp342
I1
aI0
aa(lp343
I2
aI0
aaa(lp344
(lp345
I3
aI0
aa(lp346
I1
aI0
aa(lp347
I6
aI0
aa(lp348
I1
aI0
aa(lp349
I6
aI0
aa(lp350
I5
aI0
aa(lp351
I6
aI0
aa(lp352
I1
aI0
aa(lp353
I6
aI0
aa(lp354
I1
aI0
aa(lp355
I0
aI0
aa(lp356
I2
aI0
aaa(lp357
(lp358
I0
aI0
aa(lp359
I0
aI0
aa(lp360
I0
aI0
aa(lp361
I1
aI0
aa(lp362
I6
aI0
aa(lp363
I4
aI0
aa(lp364
I6
aI0
aa(lp365
I1
aI0
aa(lp366
I6
aI0
aa(lp367
I1
aI0
aa(lp368
I0
aI0
aa(lp369
I2
aI0
aaa(lp370
(lp371
I6
aI0
aa(lp372
I1
aI0
aa(lp373
I1
aI0
aa(lp374
I1
aI0
aa(lp375
I1
aI0
aa(lp376
I1
aI0
aa(lp377
I1
aI0
aa(lp378
I1
aI0
aa(lp379
I6
aI0
aa(lp380
I1
aI0
aa(lp381
I5
aI0
aa(lp382
I2
aI0
aaa(lp383
(lp384
I5
aI0
aa(lp385
I3
aI0
aa(lp386
I0
aI0
aa(lp387
I0
aI0
aa(lp388
I0
aI0
aa(lp389
I0
aI0
aa(lp390
I0
aI0
aa(lp391
I0
aI0
aa(lp392
I0
aI0
aa(lp393
I0
aI0
aa(lp394
I2
aI0
aa(lp395
I6
aI0
aaa(lp396
(lp397
I6
aI0
aa(lp398
I3
aI0
aa(lp399
I1
aI0
aa(lp400
I1
aI0
aa(lp401
I1
aI0
aa(lp402
I1
aI0
aa(lp403
I1
aI0
aa(lp404
I1
aI0
aa(lp405
I1
aI0
aa(lp406
I5
aI0
aa(lp407
I2
aI0
aa(lp408
I0
aI0
aaa(lp409
(lp410
I6
aI0
aa(lp411
I5
aI0
aa(lp412
I5
aI0
aa(lp413
I5
aI0
aa(lp414
I5
aI0
aa(lp415
I5
aI0
aa(lp416
I5
aI0
aa(lp417
I5
aI0
aa(lp418
I5
aI0
aa(lp419
I5
aI0
aa(lp420
I2
aI0
aa(lp421
I0
aI0
aaaasS'def_file'
p422
S'ArrowDefs.py'
p423
sS'level_size'
p424
(lp425
(lp426
I16
aI12
aa(lp427
I16
aI12
aasS'dave_pos'
p428
(lp429
(I7
I2
tp430
a(I11
I0
tp431
asS'minimum_score'
p432
(lp433
I58
aI42
asb.