(i__main__
Game_Data
p0
(dp1
S'level_map'
p2
(lp3
(lp4
(lp5
(lp6
I0
aI0
aa(lp7
I0
aI0
aa(lp8
I0
aI0
aa(lp9
I5
aI0
aa(lp10
I0
aI0
aa(lp11
I12
a(I0
I9
tp12
aa(lp13
I5
aI0
aa(lp14
I5
aI0
aa(lp15
I5
aI0
aa(lp16
I0
aI0
aa(lp17
I0
aI0
aa(lp18
I9
aI0
aaa(lp19
(lp20
I0
aI0
aa(lp21
I17
aI0
aa(lp22
I0
aI0
aa(lp23
I0
aI0
aa(lp24
I13
aI0
aa(lp25
I7
a(I14
I8
tp26
aa(lp27
I13
aI0
aa(lp28
I0
aI0
aa(lp29
I13
aI0
aa(lp30
I13
aI0
aa(lp31
I0
aI0
aa(lp32
I13
aI0
aaa(lp33
(lp34
I14
aI0
aa(lp35
I16
aI0
aa(lp36
I0
aI0
aa(lp37
I0
aI0
aa(lp38
I0
aI0
aa(lp39
I0
aI0
aa(lp40
I0
aI0
aa(lp41
I0
aI0
aa(lp42
I0
aI0
aa(lp43
I16
aI0
aa(lp44
I0
aI0
aa(lp45
I9
aI0
aaa(lp46
(lp47
I0
aI0
aa(lp48
I0
aI0
aa(lp49
I14
aI0
aa(lp50
I13
aI0
aa(lp51
I0
aI0
aa(lp52
I0
aI0
aa(lp53
I2
aI0
aa(lp54
I21
aI0
aa(lp55
I0
aI0
aa(lp56
I0
aI0
aa(lp57
I0
aI0
aa(lp58
I13
aI0
aaa(lp59
(lp60
I0
aI0
aa(lp61
I13
aI0
aa(lp62
I0
aI0
aa(lp63
I0
aI0
aa(lp64
I0
aI0
aa(lp65
I13
aI0
aa(lp66
I0
aI0
aa(lp67
I0
aI0
aa(lp68
I14
aI0
aa(lp69
I13
aI0
aa(lp70
I0
aI0
aa(lp71
I9
aI0
aaa(lp72
(lp73
I0
aI0
aa(lp74
I0
aI0
aa(lp75
I0
aI0
aa(lp76
I13
aI0
aa(lp77
I20
aI0
aa(lp78
I0
aI0
aa(lp79
I14
aI0
aa(lp80
I13
aI0
aa(lp81
I0
aI0
aa(lp82
I0
aI0
aa(lp83
I0
aI0
aa(lp84
I13
aI0
aaa(lp85
(lp86
I14
aI0
aa(lp87
I12
a(I6
I9
tp88
aa(lp89
I0
aI0
aa(lp90
I0
aI0
aa(lp91
I0
aI0
aa(lp92
I11
a(I14
I1
tp93
aa(lp94
I0
aI0
aa(lp95
I0
aI0
aa(lp96
I0
aI0
aa(lp97
I13
aI0
aa(lp98
I0
aI0
aa(lp99
I9
aI0
aaa(lp100
(lp101
I0
aI0
aa(lp102
I0
aI0
aa(lp103
I5
aI0
aa(lp104
I13
aI0
aa(lp105
I0
aI0
aa(lp106
I0
aI0
aa(lp107
I5
aI0
aa(lp108
I12
a(I10
I1
tp109
aa(lp110
I0
aI0
aa(lp111
I0
aI0
aa(lp112
I0
aI0
aa(lp113
I7
a(I0
I11
tp114
aaa(lp115
(lp116
I5
aI0
aa(lp117
I13
aI0
aa(lp118
I0
aI0
aa(lp119
I0
aI0
aa(lp120
I2
aI0
aa(lp121
I13
aI0
aa(lp122
I0
aI0
aa(lp123
I0
aI0
aa(lp124
I14
aI0
aa(lp125
I21
aI0
aa(lp126
I0
aI0
aa(lp127
I9
aI0
aaa(lp128
(lp129
I0
aI0
aa(lp130
I0
aI0
aa(lp131
I0
aI0
aa(lp132
I12
a(I4
I9
tp133
aa(lp134
I0
aI0
aa(lp135
I0
aI0
aa(lp136
I0
aI0
aa(lp137
I13
aI0
aa(lp138
I0
aI0
aa(lp139
I0
aI0
aa(lp140
I0
aI0
aa(lp141
I13
aI0
aaa(lp142
(lp143
I14
aI0
aa(lp144
I13
aI0
aa(lp145
I0
aI0
aa(lp146
I0
aI0
aa(lp147
I14
aI0
aa(lp148
I21
aI0
aa(lp149
I0
aI0
aa(lp150
I0
aI0
aa(lp151
I2
aI0
aa(lp152
I13
aI0
aa(lp153
I0
aI0
aa(lp154
I9
aI0
aaa(lp155
(lp156
I0
aI0
aa(lp157
I0
aI0
aa(lp158
I5
aI0
aa(lp159
I13
aI0
aa(lp160
I0
aI0
aa(lp161
I0
aI0
aa(lp162
I2
aI0
aa(lp163
I13
aI0
aa(lp164
I0
aI0
aa(lp165
I0
aI0
aa(lp166
I0
aI0
aa(lp167
I13
aI0
aaa(lp168
(lp169
I5
aI0
aa(lp170
I12
a(I11
I3
tp171
aa(lp172
I0
aI0
aa(lp173
I0
aI0
aa(lp174
I2
aI0
aa(lp175
I13
aI0
aa(lp176
I0
aI0
aa(lp177
I0
aI0
aa(lp178
I20
aI0
aa(lp179
I11
a(I11
I7
tp180
aa(lp181
I0
aI0
aa(lp182
I9
aI0
aaa(lp183
(lp184
I0
aI0
aa(lp185
I0
aI0
aa(lp186
I20
aI0
aa(lp187
I0
aI0
aa(lp188
I0
aI0
aa(lp189
I0
aI0
aa(lp190
I0
aI0
aa(lp191
I0
aI0
aa(lp192
I0
aI0
aa(lp193
I0
aI0
aa(lp194
I0
aI0
aa(lp195
I13
aI0
aaa(lp196
(lp197
I0
aI0
aa(lp198
I13
aI0
aa(lp199
I0
aI0
aa(lp200
I0
aI0
aa(lp201
I15
aI0
aa(lp202
I7
a(I1
I7
tp203
aa(lp204
I13
aI0
aa(lp205
I18
aI0
aa(lp206
I0
aI0
aa(lp207
I13
aI0
aa(lp208
I0
aI0
aa(lp209
I9
aI0
aaa(lp210
(lp211
I6
aI0
aa(lp212
I0
aI0
aa(lp213
I0
aI0
aa(lp214
I0
aI0
aa(lp215
I0
aI0
aa(lp216
I12
a(I15
I9
tp217
aa(lp218
I5
aI0
aa(lp219
I5
aI0
aa(lp220
I5
aI0
aa(lp221
I0
aI0
aa(lp222
I0
aI0
aa(lp223
I13
aI0
aaaasS'def_file'
p224
S'ctdefs.py'
p225
sS'level_size'
p226
(lp227
(lp228
I16
aI12
aasS'dave_pos'
p229
(lp230
(I0
I0
tp231
asS'minimum_score'
p232
(lp233
I12
asb.